TN:
SF:/home/vumpus/kde/build/multimedia/elisa/src/qrc_resources.cpp
FN:57779,_ZL20qResourceFeatureZlibv
FNDA:1,_ZL20qResourceFeatureZlibv
FN:57793,_Z24qInitResources_resourcesv
FNDA:1,_Z24qInitResources_resourcesv
FN:57802,_Z27qCleanupResources_resourcesv
FNDA:1,_Z27qCleanupResources_resourcesv
FN:57813,_ZN12_GLOBAL__N_111initializerC2Ev
FNDA:1,_ZN12_GLOBAL__N_111initializerC2Ev
FN:57814,_ZN12_GLOBAL__N_111initializerD2Ev
FNDA:1,_ZN12_GLOBAL__N_111initializerD2Ev
FNF:5
FNH:5
DA:57779,1
DA:57782,1
DA:57793,1
DA:57795,1
DA:57797,1
DA:57798,1
DA:57802,1
DA:57804,1
DA:57805,1
DA:57807,1
DA:57808,1
DA:57813,1
DA:57814,1
LF:13
LH:13
end_of_record
TN:
SF:/usr/include/qt/QtCore/qflags.h
FN:134,_ZN6QFlagsIN9QMetaType8TypeFlagEEoRES1_
FNDA:0,_ZN6QFlagsIN9QMetaType8TypeFlagEEoRES1_
FNF:1
FNH:0
DA:134,0
LF:1
LH:0
end_of_record
SF:/usr/include/c++/10.2.0/bits/atomic_base.h
FN:100,_ZStanSt12memory_orderSt23__memory_order_modifier
FNDA:0,_ZStanSt12memory_orderSt23__memory_order_modifier
FN:325,_ZNSt13__atomic_baseIiEppEv
FNDA:0,_ZNSt13__atomic_baseIiEppEv
FN:333,_ZNSt13__atomic_baseIiEmmEv
FNDA:0,_ZNSt13__atomic_baseIiEmmEv
FNF:3
FNH:0
DA:100,0
DA:102,0
DA:325,0
DA:326,0
DA:333,0
DA:334,0
DA:399,0
DA:404,0
DA:405,0
DA:422,0
DA:426,0
LF:11
LH:0
end_of_record
SF:/usr/include/qt/QtCore/qmap.h
FN:66,_Z15qMapLessThanKeyIN9DataTypes12ColumnsRolesEEbRKT_S4_
FNDA:0,_Z15qMapLessThanKeyIN9DataTypes12ColumnsRolesEEbRKT_S4_
FN:93,_ZNK12QMapNodeBase5colorEv
FNDA:0,_ZNK12QMapNodeBase5colorEv
FN:94,_ZN12QMapNodeBase8setColorENS_5ColorE
FNDA:0,_ZN12QMapNodeBase8setColorENS_5ColorE
FN:96,_ZN12QMapNodeBase9setParentEPS_
FNDA:0,_ZN12QMapNodeBase9setParentEPS_
FN:100,_ZN12QMapNodeBase25callDestructorIfNecessaryI8QVariantEENSt9enable_ifIXsr9QTypeInfoIT_E9isComplexEvE4typeERS4_
FNDA:0,_ZN12QMapNodeBase25callDestructorIfNecessaryI8QVariantEENSt9enable_ifIXsr9QTypeInfoIT_E9isComplexEvE4typeERS4_
FN:103,_ZN12QMapNodeBase25callDestructorIfNecessaryIN9DataTypes12ColumnsRolesEEENSt9enable_ifIXntsr9QTypeInfoIT_E9isComplexEvE4typeERS5_
FNDA:0,_ZN12QMapNodeBase25callDestructorIfNecessaryIN9DataTypes12ColumnsRolesEEENSt9enable_ifIXntsr9QTypeInfoIT_E9isComplexEvE4typeERS5_
FN:112,_ZNK8QMapNodeIN9DataTypes12ColumnsRolesE8QVariantE8leftNodeEv
FNDA:0,_ZNK8QMapNodeIN9DataTypes12ColumnsRolesE8QVariantE8leftNodeEv
FN:113,_ZNK8QMapNodeIN9DataTypes12ColumnsRolesE8QVariantE9rightNodeEv
FNDA:0,_ZNK8QMapNodeIN9DataTypes12ColumnsRolesE8QVariantE9rightNodeEv
FN:115,_ZNK8QMapNodeIN9DataTypes12ColumnsRolesE8QVariantE8nextNodeEv
FNDA:0,_ZNK8QMapNodeIN9DataTypes12ColumnsRolesE8QVariantE8nextNodeEv
FN:122,_ZN8QMapNodeIN9DataTypes12ColumnsRolesE8QVariantE14destroySubTreeEv
FNDA:0,_ZN8QMapNodeIN9DataTypes12ColumnsRolesE8QVariantE14destroySubTreeEv
FN:134,_ZN8QMapNodeIN9DataTypes12ColumnsRolesE8QVariantE16doDestroySubTreeESt17integral_constantIbLb1EE
FNDA:0,_ZN8QMapNodeIN9DataTypes12ColumnsRolesE8QVariantE16doDestroySubTreeESt17integral_constantIbLb1EE
FN:208,_ZNK8QMapDataIN9DataTypes12ColumnsRolesE8QVariantE4rootEv
FNDA:0,_ZNK8QMapDataIN9DataTypes12ColumnsRolesE8QVariantE4rootEv
FN:215,_ZN8QMapDataIN9DataTypes12ColumnsRolesE8QVariantE3endEv
FNDA:0,_ZN8QMapDataIN9DataTypes12ColumnsRolesE8QVariantE3endEv
FN:218,_ZN8QMapDataIN9DataTypes12ColumnsRolesE8QVariantE5beginEv
FNDA:0,_ZN8QMapDataIN9DataTypes12ColumnsRolesE8QVariantE5beginEv
FN:224,_ZN8QMapDataIN9DataTypes12ColumnsRolesE8QVariantE10createNodeERKS1_RKS2_P8QMapNodeIS1_S2_Eb
FNDA:0,_ZN8QMapDataIN9DataTypes12ColumnsRolesE8QVariantE10createNodeERKS1_RKS2_P8QMapNodeIS1_S2_Eb
FN:243,_ZN8QMapDataIN9DataTypes12ColumnsRolesE8QVariantE6createEv
FNDA:0,_ZN8QMapDataIN9DataTypes12ColumnsRolesE8QVariantE6createEv
FN:247,_ZN8QMapDataIN9DataTypes12ColumnsRolesE8QVariantE7destroyEv
FNDA:0,_ZN8QMapDataIN9DataTypes12ColumnsRolesE8QVariantE7destroyEv
FN:257,_ZNK8QMapNodeIN9DataTypes12ColumnsRolesE8QVariantE4copyEP8QMapDataIS1_S2_E
FNDA:0,_ZNK8QMapNodeIN9DataTypes12ColumnsRolesE8QVariantE4copyEP8QMapDataIS1_S2_E
FN:329,_ZN4QMapIN9DataTypes12ColumnsRolesE8QVariantEC2Ev
FNDA:0,_ZN4QMapIN9DataTypes12ColumnsRolesE8QVariantEC2Ev
FN:338,_ZN4QMapIN9DataTypes12ColumnsRolesE8QVariantED2Ev
FNDA:0,_ZN4QMapIN9DataTypes12ColumnsRolesE8QVariantED2Ev
FN:357,_ZNK4QMapIN9DataTypes12ColumnsRolesE8QVariantE4sizeEv
FNDA:0,_ZNK4QMapIN9DataTypes12ColumnsRolesE8QVariantE4sizeEv
FN:479,_ZN4QMapIN9DataTypes12ColumnsRolesE8QVariantE14const_iteratorC2EPK8QMapNodeIS1_S2_E
FNDA:0,_ZN4QMapIN9DataTypes12ColumnsRolesE8QVariantE14const_iteratorC2EPK8QMapNodeIS1_S2_E
FN:487,_ZNK4QMapIN9DataTypes12ColumnsRolesE8QVariantE14const_iterator3keyEv
FNDA:0,_ZNK4QMapIN9DataTypes12ColumnsRolesE8QVariantE14const_iterator3keyEv
FN:488,_ZNK4QMapIN9DataTypes12ColumnsRolesE8QVariantE14const_iterator5valueEv
FNDA:0,_ZNK4QMapIN9DataTypes12ColumnsRolesE8QVariantE14const_iterator5valueEv
FN:492,_ZNK4QMapIN9DataTypes12ColumnsRolesE8QVariantE14const_iteratorneERKS4_
FNDA:0,_ZNK4QMapIN9DataTypes12ColumnsRolesE8QVariantE14const_iteratorneERKS4_
FN:494,_ZN4QMapIN9DataTypes12ColumnsRolesE8QVariantE14const_iteratorppEv
FNDA:0,_ZN4QMapIN9DataTypes12ColumnsRolesE8QVariantE14const_iteratorppEv
FN:560,_ZNK4QMapIN9DataTypes12ColumnsRolesE8QVariantE5beginEv
FNDA:0,_ZNK4QMapIN9DataTypes12ColumnsRolesE8QVariantE5beginEv
FN:564,_ZNK4QMapIN9DataTypes12ColumnsRolesE8QVariantE3endEv
FNDA:0,_ZNK4QMapIN9DataTypes12ColumnsRolesE8QVariantE3endEv
FN:629,_ZN4QMapIN9DataTypes12ColumnsRolesE8QVariantEC2ERKS3_
FNDA:0,_ZN4QMapIN9DataTypes12ColumnsRolesE8QVariantEC2ERKS3_
FN:1077,_ZNK4QMapIN9DataTypes12ColumnsRolesE8QVariantEeqERKS3_
FNDA:0,_ZNK4QMapIN9DataTypes12ColumnsRolesE8QVariantEeqERKS3_
FNF:30
FNH:0
DA:66,0
DA:68,0
DA:93,0
DA:94,0
DA:96,0
DA:100,0
DA:103,0
DA:112,0
DA:113,0
DA:115,0
DA:122,0
DA:124,0
DA:125,0
DA:126,0
DA:127,0
DA:134,0
DA:136,0
DA:137,0
DA:138,0
DA:139,0
DA:140,0
DA:208,0
DA:215,0
DA:218,0
DA:224,0
DA:226,0
DA:229,0
DA:231,0
DA:240,0
DA:243,0
DA:244,0
DA:247,0
DA:248,0
DA:249,0
DA:250,0
DA:252,0
DA:253,0
DA:257,0
DA:259,0
DA:260,0
DA:261,0
DA:262,0
DA:263,0
DA:265,0
DA:267,0
DA:268,0
DA:269,0
DA:271,0
DA:273,0
DA:329,0
DA:338,0
DA:357,0
DA:479,0
DA:487,0
DA:488,0
DA:492,0
DA:494,0
DA:495,0
DA:496,0
DA:560,0
DA:564,0
DA:629,0
DA:631,0
DA:632,0
DA:634,0
DA:635,0
DA:636,0
DA:637,0
DA:638,0
DA:641,0
DA:1077,0
DA:1079,0
DA:1080,0
DA:1081,0
DA:1082,0
DA:1084,0
DA:1085,0
DA:1087,0
DA:1088,0
DA:1089,0
DA:1090,0
DA:1091,0
DA:1093,0
LF:83
LH:0
end_of_record
SF:/usr/include/qt/QtCore/qrefcount.h
FN:54,_ZN9QtPrivate8RefCount3refEv
FNDA:0,_ZN9QtPrivate8RefCount3refEv
FN:65,_ZN9QtPrivate8RefCount5derefEv
FNDA:0,_ZN9QtPrivate8RefCount5derefEv
FN:99,_ZNK9QtPrivate8RefCount8isSharedEv
FNDA:0,_ZNK9QtPrivate8RefCount8isSharedEv
FNF:3
FNH:0
DA:54,0
DA:55,0
DA:57,0
DA:58,0
DA:60,0
DA:61,0
DA:62,0
DA:65,0
DA:66,0
DA:68,0
DA:69,0
DA:71,0
DA:72,0
DA:73,0
DA:99,0
DA:101,0
DA:102,0
LF:17
LH:0
end_of_record
SF:/usr/include/qt/QtCore/qscopedpointer.h
FN:116,_ZNK14QScopedPointerI11QObjectData21QScopedPointerDeleterIS0_EEptEv
FNDA:5,_ZNK14QScopedPointerI11QObjectData21QScopedPointerDeleterIS0_EEptEv
FNF:1
FNH:1
DA:116,5
DA:118,5
LF:2
LH:2
end_of_record
SF:/usr/include/qt/QtCore/qvariant.h
FN:462,_ZNK8QVarianteqERKS_
FNDA:0,_ZNK8QVarianteqERKS_
FNF:1
FNH:0
DA:462,0
DA:463,0
LF:2
LH:0
end_of_record
SF:/usr/include/qt/QtCore/qmetatype.h
FN:344,_ZN9QtPrivate25AbstractConverterFunctionC2EPFbPKS0_PKvPvE
FNDA:1,_ZN9QtPrivate25AbstractConverterFunctionC2EPFbPKS0_PKvPvE
FN:396,_ZN9QtPrivate16ConverterFunctorI5QListISt5tupleIJN9DataTypes13MusicDataTypeE7QString4QUrlEEEN17QtMetaTypePrivate23QSequentialIterableImplENS9_33QSequentialIterableConvertFunctorIS8_EEEC2ESC_
FNDA:1,_ZN9QtPrivate16ConverterFunctorI5QListISt5tupleIJN9DataTypes13MusicDataTypeE7QString4QUrlEEEN17QtMetaTypePrivate23QSequentialIterableImplENS9_33QSequentialIterableConvertFunctorIS8_EEEC2ESC_
FN:400,_ZN9QtPrivate16ConverterFunctorI5QListISt5tupleIJN9DataTypes13MusicDataTypeE7QString4QUrlEEEN17QtMetaTypePrivate23QSequentialIterableImplENS9_33QSequentialIterableConvertFunctorIS8_EEE7convertEPKNS_25AbstractConverterFunctionEPKvPv
FNDA:2,_ZN9QtPrivate16ConverterFunctorI5QListISt5tupleIJN9DataTypes13MusicDataTypeE7QString4QUrlEEEN17QtMetaTypePrivate23QSequentialIterableImplENS9_33QSequentialIterableConvertFunctorIS8_EEE7convertEPKNS_25AbstractConverterFunctionEPKvPv
FN:801,_ZN9QtPrivate16ConverterFunctorI5QListISt5tupleIJN9DataTypes13MusicDataTypeE7QString4QUrlEEEN17QtMetaTypePrivate23QSequentialIterableImplENS9_33QSequentialIterableConvertFunctorIS8_EEED2Ev
FNDA:1,_ZN9QtPrivate16ConverterFunctorI5QListISt5tupleIJN9DataTypes13MusicDataTypeE7QString4QUrlEEEN17QtMetaTypePrivate23QSequentialIterableImplENS9_33QSequentialIterableConvertFunctorIS8_EEED2Ev
FN:816,_ZN17QtMetaTypePrivate23QMetaTypeFunctionHelperINS_23QSequentialIterableImplELb1EE8DestructEPv
FNDA:0,_ZN17QtMetaTypePrivate23QMetaTypeFunctionHelperINS_23QSequentialIterableImplELb1EE8DestructEPv
FN:816,_ZN17QtMetaTypePrivate23QMetaTypeFunctionHelperISt5tupleIJN9DataTypes13MusicDataTypeE7QString4QUrlEELb1EE8DestructEPv
FNDA:0,_ZN17QtMetaTypePrivate23QMetaTypeFunctionHelperISt5tupleIJN9DataTypes13MusicDataTypeE7QString4QUrlEELb1EE8DestructEPv
FN:816,_ZN17QtMetaTypePrivate23QMetaTypeFunctionHelperI5QListISt5tupleIJN9DataTypes13MusicDataTypeE7QString4QUrlEEELb1EE8DestructEPv
FNDA:3,_ZN17QtMetaTypePrivate23QMetaTypeFunctionHelperI5QListISt5tupleIJN9DataTypes13MusicDataTypeE7QString4QUrlEEELb1EE8DestructEPv
FN:822,_ZN17QtMetaTypePrivate23QMetaTypeFunctionHelperISt5tupleIJN9DataTypes13MusicDataTypeE7QString4QUrlEELb1EE9ConstructEPvPKv
FNDA:0,_ZN17QtMetaTypePrivate23QMetaTypeFunctionHelperISt5tupleIJN9DataTypes13MusicDataTypeE7QString4QUrlEELb1EE9ConstructEPvPKv
FN:822,_ZN17QtMetaTypePrivate23QMetaTypeFunctionHelperI5QListISt5tupleIJN9DataTypes13MusicDataTypeE7QString4QUrlEEELb1EE9ConstructEPvPKv
FNDA:3,_ZN17QtMetaTypePrivate23QMetaTypeFunctionHelperI5QListISt5tupleIJN9DataTypes13MusicDataTypeE7QString4QUrlEEELb1EE9ConstructEPvPKv
FN:822,_ZN17QtMetaTypePrivate23QMetaTypeFunctionHelperINS_23QSequentialIterableImplELb1EE9ConstructEPvPKv
FNDA:0,_ZN17QtMetaTypePrivate23QMetaTypeFunctionHelperINS_23QSequentialIterableImplELb1EE9ConstructEPvPKv
FN:857,_ZN17QtMetaTypePrivate11VariantDataC2EiPKvj
FNDA:0,_ZN17QtMetaTypePrivate11VariantDataC2EiPKvj
FN:878,_ZN17QtMetaTypePrivate19IteratorOwnerCommonIN5QListISt5tupleIJN9DataTypes13MusicDataTypeE7QString4QUrlEEE14const_iteratorEE6assignEPPvS9_
FNDA:0,_ZN17QtMetaTypePrivate19IteratorOwnerCommonIN5QListISt5tupleIJN9DataTypes13MusicDataTypeE7QString4QUrlEEE14const_iteratorEE6assignEPPvS9_
FN:882,_ZN17QtMetaTypePrivate19IteratorOwnerCommonIN5QListISt5tupleIJN9DataTypes13MusicDataTypeE7QString4QUrlEEE14const_iteratorEE6assignEPPvPKSB_
FNDA:0,_ZN17QtMetaTypePrivate19IteratorOwnerCommonIN5QListISt5tupleIJN9DataTypes13MusicDataTypeE7QString4QUrlEEE14const_iteratorEE6assignEPPvPKSB_
FN:887,_ZN17QtMetaTypePrivate19IteratorOwnerCommonIN5QListISt5tupleIJN9DataTypes13MusicDataTypeE7QString4QUrlEEE14const_iteratorEE7advanceEPPvi
FNDA:0,_ZN17QtMetaTypePrivate19IteratorOwnerCommonIN5QListISt5tupleIJN9DataTypes13MusicDataTypeE7QString4QUrlEEE14const_iteratorEE7advanceEPPvi
FN:893,_ZN17QtMetaTypePrivate19IteratorOwnerCommonIN5QListISt5tupleIJN9DataTypes13MusicDataTypeE7QString4QUrlEEE14const_iteratorEE7destroyEPPv
FNDA:0,_ZN17QtMetaTypePrivate19IteratorOwnerCommonIN5QListISt5tupleIJN9DataTypes13MusicDataTypeE7QString4QUrlEEE14const_iteratorEE7destroyEPPv
FN:898,_ZN17QtMetaTypePrivate19IteratorOwnerCommonIN5QListISt5tupleIJN9DataTypes13MusicDataTypeE7QString4QUrlEEE14const_iteratorEE5equalEPKPvSD_
FNDA:0,_ZN17QtMetaTypePrivate19IteratorOwnerCommonIN5QListISt5tupleIJN9DataTypes13MusicDataTypeE7QString4QUrlEEE14const_iteratorEE5equalEPKPvSD_
FN:907,_ZN17QtMetaTypePrivate13IteratorOwnerIN5QListISt5tupleIJN9DataTypes13MusicDataTypeE7QString4QUrlEEE14const_iteratorEE7getDataEPKPv
FNDA:0,_ZN17QtMetaTypePrivate13IteratorOwnerIN5QListISt5tupleIJN9DataTypes13MusicDataTypeE7QString4QUrlEEE14const_iteratorEE7getDataEPKPv
FN:912,_ZN17QtMetaTypePrivate13IteratorOwnerIN5QListISt5tupleIJN9DataTypes13MusicDataTypeE7QString4QUrlEEE14const_iteratorEE7getDataES9_
FNDA:0,_ZN17QtMetaTypePrivate13IteratorOwnerIN5QListISt5tupleIJN9DataTypes13MusicDataTypeE7QString4QUrlEEE14const_iteratorEE7getDataES9_
FN:1013,_ZN17QtMetaTypePrivate25ContainerCapabilitiesImplI5QListISt5tupleIJN9DataTypes13MusicDataTypeE7QString4QUrlEEEvE10appendImplEPKvSB_
FNDA:0,_ZN17QtMetaTypePrivate25ContainerCapabilitiesImplI5QListISt5tupleIJN9DataTypes13MusicDataTypeE7QString4QUrlEEEvE10appendImplEPKvSB_
FN:1056,_ZN17QtMetaTypePrivate12ContainerAPII5QListISt5tupleIJN9DataTypes13MusicDataTypeE7QString4QUrlEEEE4sizeEPKS8_
FNDA:3,_ZN17QtMetaTypePrivate12ContainerAPII5QListISt5tupleIJN9DataTypes13MusicDataTypeE7QString4QUrlEEEE4sizeEPKS8_
FN:1122,_ZN17QtMetaTypePrivate23QSequentialIterableImpl8sizeImplI5QListISt5tupleIJN9DataTypes13MusicDataTypeE7QString4QUrlEEEEEiPKv
FNDA:3,_ZN17QtMetaTypePrivate23QSequentialIterableImpl8sizeImplI5QListISt5tupleIJN9DataTypes13MusicDataTypeE7QString4QUrlEEEEEiPKv
FN:1126,_ZN17QtMetaTypePrivate23QSequentialIterableImpl6atImplI5QListISt5tupleIJN9DataTypes13MusicDataTypeE7QString4QUrlEEEEEPKvSB_i
FNDA:0,_ZN17QtMetaTypePrivate23QSequentialIterableImpl6atImplI5QListISt5tupleIJN9DataTypes13MusicDataTypeE7QString4QUrlEEEEEPKvSB_i
FN:1134,_ZN17QtMetaTypePrivate23QSequentialIterableImpl15moveToBeginImplI5QListISt5tupleIJN9DataTypes13MusicDataTypeE7QString4QUrlEEEEEvPKvPPv
FNDA:0,_ZN17QtMetaTypePrivate23QSequentialIterableImpl15moveToBeginImplI5QListISt5tupleIJN9DataTypes13MusicDataTypeE7QString4QUrlEEEEEvPKvPPv
FN:1138,_ZN17QtMetaTypePrivate23QSequentialIterableImpl13moveToEndImplI5QListISt5tupleIJN9DataTypes13MusicDataTypeE7QString4QUrlEEEEEvPKvPPv
FNDA:0,_ZN17QtMetaTypePrivate23QSequentialIterableImpl13moveToEndImplI5QListISt5tupleIJN9DataTypes13MusicDataTypeE7QString4QUrlEEEEEvPKvPPv
FN:1142,_ZN17QtMetaTypePrivate23QSequentialIterableImpl10moveToImplI5QListISt5tupleIJN9DataTypes13MusicDataTypeE7QString4QUrlEEEEEvPKvPPvNS0_8PositionE
FNDA:0,_ZN17QtMetaTypePrivate23QSequentialIterableImpl10moveToImplI5QListISt5tupleIJN9DataTypes13MusicDataTypeE7QString4QUrlEEEEEvPKvPPvNS0_8PositionE
FN:1151,_ZN17QtMetaTypePrivate23QSequentialIterableImpl7getImplI5QListISt5tupleIJN9DataTypes13MusicDataTypeE7QString4QUrlEEEEENS_11VariantDataEPKPvij
FNDA:0,_ZN17QtMetaTypePrivate23QSequentialIterableImpl7getImplI5QListISt5tupleIJN9DataTypes13MusicDataTypeE7QString4QUrlEEEEENS_11VariantDataEPKPvij
FN:1155,_ZN17QtMetaTypePrivate23QSequentialIterableImplC2I5QListISt5tupleIJN9DataTypes13MusicDataTypeE7QString4QUrlEEEEEPKT_
FNDA:2,_ZN17QtMetaTypePrivate23QSequentialIterableImplC2I5QListISt5tupleIJN9DataTypes13MusicDataTypeE7QString4QUrlEEEEEPKT_
FN:1173,_ZN17QtMetaTypePrivate23QSequentialIterableImplC2Ev
FNDA:0,_ZN17QtMetaTypePrivate23QSequentialIterableImplC2Ev
FN:1235,_ZNK17QtMetaTypePrivate33QSequentialIterableConvertFunctorI5QListISt5tupleIJN9DataTypes13MusicDataTypeE7QString4QUrlEEEEclERKS8_
FNDA:2,_ZNK17QtMetaTypePrivate33QSequentialIterableConvertFunctorI5QListISt5tupleIJN9DataTypes13MusicDataTypeE7QString4QUrlEEEEclERKS8_
FN:1580,_ZN9QtPrivate17MetaObjectForTypeI5QListISt5tupleIJN9DataTypes13MusicDataTypeE7QString4QUrlEEEvE5valueEv
FNDA:1,_ZN9QtPrivate17MetaObjectForTypeI5QListISt5tupleIJN9DataTypes13MusicDataTypeE7QString4QUrlEEEvE5valueEv
FN:1580,_ZN9QtPrivate17MetaObjectForTypeIN17QtMetaTypePrivate23QSequentialIterableImplEvE5valueEv
FNDA:1,_ZN9QtPrivate17MetaObjectForTypeIN17QtMetaTypePrivate23QSequentialIterableImplEvE5valueEv
FN:1580,_ZN9QtPrivate17MetaObjectForTypeISt5tupleIJN9DataTypes13MusicDataTypeE7QString4QUrlEEvE5valueEv
FNDA:1,_ZN9QtPrivate17MetaObjectForTypeISt5tupleIJN9DataTypes13MusicDataTypeE7QString4QUrlEEvE5valueEv
FN:1657,_ZN9QtPrivate34SequentialContainerConverterHelperISt5tupleIJN9DataTypes13MusicDataTypeE7QString4QUrlEELb0EE17registerConverterEi
FNDA:1,_ZN9QtPrivate34SequentialContainerConverterHelperISt5tupleIJN9DataTypes13MusicDataTypeE7QString4QUrlEELb0EE17registerConverterEi
FN:1657,_ZN9QtPrivate34SequentialContainerConverterHelperIN17QtMetaTypePrivate23QSequentialIterableImplELb0EE17registerConverterEi
FNDA:1,_ZN9QtPrivate34SequentialContainerConverterHelperIN17QtMetaTypePrivate23QSequentialIterableImplELb0EE17registerConverterEi
FN:1680,_ZN9QtPrivate35AssociativeContainerConverterHelperISt5tupleIJN9DataTypes13MusicDataTypeE7QString4QUrlEELb0EE17registerConverterEi
FNDA:1,_ZN9QtPrivate35AssociativeContainerConverterHelperISt5tupleIJN9DataTypes13MusicDataTypeE7QString4QUrlEELb0EE17registerConverterEi
FN:1680,_ZN9QtPrivate35AssociativeContainerConverterHelperIN17QtMetaTypePrivate23QSequentialIterableImplELb0EE17registerConverterEi
FNDA:1,_ZN9QtPrivate35AssociativeContainerConverterHelperIN17QtMetaTypePrivate23QSequentialIterableImplELb0EE17registerConverterEi
FN:1680,_ZN9QtPrivate35AssociativeContainerConverterHelperI5QListISt5tupleIJN9DataTypes13MusicDataTypeE7QString4QUrlEEELb0EE17registerConverterEi
FNDA:1,_ZN9QtPrivate35AssociativeContainerConverterHelperI5QListISt5tupleIJN9DataTypes13MusicDataTypeE7QString4QUrlEEELb0EE17registerConverterEi
FN:1733,_ZN9QtPrivate6IsPairISt5tupleIJN9DataTypes13MusicDataTypeE7QString4QUrlEEE17registerConverterEi
FNDA:1,_ZN9QtPrivate6IsPairISt5tupleIJN9DataTypes13MusicDataTypeE7QString4QUrlEEE17registerConverterEi
FN:1733,_ZN9QtPrivate6IsPairI5QListISt5tupleIJN9DataTypes13MusicDataTypeE7QString4QUrlEEEE17registerConverterEi
FNDA:1,_ZN9QtPrivate6IsPairI5QListISt5tupleIJN9DataTypes13MusicDataTypeE7QString4QUrlEEEE17registerConverterEi
FN:1733,_ZN9QtPrivate6IsPairIN17QtMetaTypePrivate23QSequentialIterableImplEE17registerConverterEi
FNDA:1,_ZN9QtPrivate6IsPairIN17QtMetaTypePrivate23QSequentialIterableImplEE17registerConverterEi
FN:1749,_ZN9QtPrivate26MetaTypeSmartPointerHelperISt5tupleIJN9DataTypes13MusicDataTypeE7QString4QUrlEEvE17registerConverterEi
FNDA:1,_ZN9QtPrivate26MetaTypeSmartPointerHelperISt5tupleIJN9DataTypes13MusicDataTypeE7QString4QUrlEEvE17registerConverterEi
FN:1749,_ZN9QtPrivate26MetaTypeSmartPointerHelperI5QListISt5tupleIJN9DataTypes13MusicDataTypeE7QString4QUrlEEEvE17registerConverterEi
FNDA:1,_ZN9QtPrivate26MetaTypeSmartPointerHelperI5QListISt5tupleIJN9DataTypes13MusicDataTypeE7QString4QUrlEEEvE17registerConverterEi
FN:1749,_ZN9QtPrivate26MetaTypeSmartPointerHelperIN17QtMetaTypePrivate23QSequentialIterableImplEvE17registerConverterEi
FNDA:1,_ZN9QtPrivate26MetaTypeSmartPointerHelperIN17QtMetaTypePrivate23QSequentialIterableImplEvE17registerConverterEi
FN:1776,_ZN12QMetaTypeId2IN17QtMetaTypePrivate23QSequentialIterableImplEE14qt_metatype_idEv
FNDA:2,_ZN12QMetaTypeId2IN17QtMetaTypePrivate23QSequentialIterableImplEE14qt_metatype_idEv
FN:1776,_ZN12QMetaTypeId2I5QListISt5tupleIJN9DataTypes13MusicDataTypeE7QString4QUrlEEEE14qt_metatype_idEv
FNDA:2,_ZN12QMetaTypeId2I5QListISt5tupleIJN9DataTypes13MusicDataTypeE7QString4QUrlEEEE14qt_metatype_idEv
FN:1776,_ZN12QMetaTypeId2ISt5tupleIJN9DataTypes13MusicDataTypeE7QString4QUrlEEE14qt_metatype_idEv
FNDA:2,_ZN12QMetaTypeId2ISt5tupleIJN9DataTypes13MusicDataTypeE7QString4QUrlEEE14qt_metatype_idEv
FN:1788,_ZN9QtPrivate17QMetaTypeIdHelperIN17QtMetaTypePrivate23QSequentialIterableImplELb1EE14qt_metatype_idEv
FNDA:0,_ZN9QtPrivate17QMetaTypeIdHelperIN17QtMetaTypePrivate23QSequentialIterableImplELb1EE14qt_metatype_idEv
FN:1788,_ZN9QtPrivate17QMetaTypeIdHelperISt5tupleIJN9DataTypes13MusicDataTypeE7QString4QUrlEELb1EE14qt_metatype_idEv
FNDA:0,_ZN9QtPrivate17QMetaTypeIdHelperISt5tupleIJN9DataTypes13MusicDataTypeE7QString4QUrlEELb1EE14qt_metatype_idEv
FN:1788,_ZN9QtPrivate17QMetaTypeIdHelperI5QListISt5tupleIJN9DataTypes13MusicDataTypeE7QString4QUrlEEELb1EE14qt_metatype_idEv
FNDA:0,_ZN9QtPrivate17QMetaTypeIdHelperI5QListISt5tupleIJN9DataTypes13MusicDataTypeE7QString4QUrlEEELb1EE14qt_metatype_idEv
FN:1847,_Z27qRegisterNormalizedMetaTypeI5QListISt5tupleIJN9DataTypes13MusicDataTypeE7QString4QUrlEEEEiRK10QByteArrayPT_N9QtPrivate21MetaTypeDefinedHelperISB_Xaasr12QMetaTypeId2ISB_E7DefinedntsrSG_9IsBuiltInEE11DefinedTypeE
FNDA:1,_Z27qRegisterNormalizedMetaTypeI5QListISt5tupleIJN9DataTypes13MusicDataTypeE7QString4QUrlEEEEiRK10QByteArrayPT_N9QtPrivate21MetaTypeDefinedHelperISB_Xaasr12QMetaTypeId2ISB_E7DefinedntsrSG_9IsBuiltInEE11DefinedTypeE
FN:1847,_Z27qRegisterNormalizedMetaTypeISt5tupleIJN9DataTypes13MusicDataTypeE7QString4QUrlEEEiRK10QByteArrayPT_N9QtPrivate21MetaTypeDefinedHelperIS9_Xaasr12QMetaTypeId2IS9_E7DefinedntsrSE_9IsBuiltInEE11DefinedTypeE
FNDA:1,_Z27qRegisterNormalizedMetaTypeISt5tupleIJN9DataTypes13MusicDataTypeE7QString4QUrlEEEiRK10QByteArrayPT_N9QtPrivate21MetaTypeDefinedHelperIS9_Xaasr12QMetaTypeId2IS9_E7DefinedntsrSE_9IsBuiltInEE11DefinedTypeE
FN:1847,_Z27qRegisterNormalizedMetaTypeIN17QtMetaTypePrivate23QSequentialIterableImplEEiRK10QByteArrayPT_N9QtPrivate21MetaTypeDefinedHelperIS5_Xaasr12QMetaTypeId2IS5_E7DefinedntsrSA_9IsBuiltInEE11DefinedTypeE
FNDA:1,_Z27qRegisterNormalizedMetaTypeIN17QtMetaTypePrivate23QSequentialIterableImplEEiRK10QByteArrayPT_N9QtPrivate21MetaTypeDefinedHelperIS5_Xaasr12QMetaTypeId2IS5_E7DefinedntsrSA_9IsBuiltInEE11DefinedTypeE
FN:1884,_Z17qRegisterMetaTypeI5QListISt5tupleIJN9DataTypes13MusicDataTypeE7QString4QUrlEEEEiPKcPT_N9QtPrivate21MetaTypeDefinedHelperISA_Xaasr12QMetaTypeId2ISA_E7DefinedntsrSF_9IsBuiltInEE11DefinedTypeE
FNDA:1,_Z17qRegisterMetaTypeI5QListISt5tupleIJN9DataTypes13MusicDataTypeE7QString4QUrlEEEEiPKcPT_N9QtPrivate21MetaTypeDefinedHelperISA_Xaasr12QMetaTypeId2ISA_E7DefinedntsrSF_9IsBuiltInEE11DefinedTypeE
FN:1884,_Z17qRegisterMetaTypeISt5tupleIJN9DataTypes13MusicDataTypeE7QString4QUrlEEEiPKcPT_N9QtPrivate21MetaTypeDefinedHelperIS8_Xaasr12QMetaTypeId2IS8_E7DefinedntsrSD_9IsBuiltInEE11DefinedTypeE
FNDA:1,_Z17qRegisterMetaTypeISt5tupleIJN9DataTypes13MusicDataTypeE7QString4QUrlEEEiPKcPT_N9QtPrivate21MetaTypeDefinedHelperIS8_Xaasr12QMetaTypeId2IS8_E7DefinedntsrSD_9IsBuiltInEE11DefinedTypeE
FN:1884,_Z17qRegisterMetaTypeIN17QtMetaTypePrivate23QSequentialIterableImplEEiPKcPT_N9QtPrivate21MetaTypeDefinedHelperIS4_Xaasr12QMetaTypeId2IS4_E7DefinedntsrS9_9IsBuiltInEE11DefinedTypeE
FNDA:1,_Z17qRegisterMetaTypeIN17QtMetaTypePrivate23QSequentialIterableImplEEiPKcPT_N9QtPrivate21MetaTypeDefinedHelperIS4_Xaasr12QMetaTypeId2IS4_E7DefinedntsrS9_9IsBuiltInEE11DefinedTypeE
FN:1914,_Z11qMetaTypeIdI5QListISt5tupleIJN9DataTypes13MusicDataTypeE7QString4QUrlEEEEiv
FNDA:2,_Z11qMetaTypeIdI5QListISt5tupleIJN9DataTypes13MusicDataTypeE7QString4QUrlEEEEiv
FN:1914,_Z11qMetaTypeIdIN17QtMetaTypePrivate23QSequentialIterableImplEEiv
FNDA:2,_Z11qMetaTypeIdIN17QtMetaTypePrivate23QSequentialIterableImplEEiv
FN:1914,_Z11qMetaTypeIdISt5tupleIJN9DataTypes13MusicDataTypeE7QString4QUrlEEEiv
FNDA:2,_Z11qMetaTypeIdISt5tupleIJN9DataTypes13MusicDataTypeE7QString4QUrlEEEiv
FN:1921,_Z17qRegisterMetaTypeI5QListISt5tupleIJN9DataTypes13MusicDataTypeE7QString4QUrlEEEEiv
FNDA:1,_Z17qRegisterMetaTypeI5QListISt5tupleIJN9DataTypes13MusicDataTypeE7QString4QUrlEEEEiv
FN:2404,_ZN11QMetaTypeIdIN17QtMetaTypePrivate23QSequentialIterableImplEE14qt_metatype_idEv
FNDA:2,_ZN11QMetaTypeIdIN17QtMetaTypePrivate23QSequentialIterableImplEE14qt_metatype_idEv
FN:2428,_ZN9QtPrivate19ValueTypeIsMetaTypeI5QListISt5tupleIJN9DataTypes13MusicDataTypeE7QString4QUrlEEELb1EE17registerConverterEi
FNDA:1,_ZN9QtPrivate19ValueTypeIsMetaTypeI5QListISt5tupleIJN9DataTypes13MusicDataTypeE7QString4QUrlEEELb1EE17registerConverterEi
FNF:61
FNH:39
DA:344,1
DA:345,1
DA:396,1
DA:398,1
DA:400,2
DA:402,2
DA:403,2
DA:404,2
DA:406,2
DA:407,2
DA:801,1
DA:803,1
DA:804,1
DA:816,3
DA:819,3
DA:820,3
DA:816,0
DA:819,0
DA:820,0
DA:816,0
DA:819,0
DA:820,0
DA:822,3
DA:824,3
DA:825,1
DA:826,2
DA:822,0
DA:824,0
DA:825,0
DA:826,0
DA:822,0
DA:824,0
DA:825,0
DA:826,0
DA:857,0
DA:860,0
DA:862,0
DA:864,0
DA:878,0
DA:880,0
DA:881,0
DA:882,0
DA:884,0
DA:885,0
DA:887,0
DA:889,0
DA:890,0
DA:891,0
DA:893,0
DA:895,0
DA:896,0
DA:898,0
DA:900,0
DA:907,0
DA:909,0
DA:912,0
DA:914,0
DA:1013,0
DA:1014,0
DA:1056,3
DA:1122,3
DA:1123,3
DA:1126,0
DA:1128,0
DA:1129,0
DA:1130,0
DA:1134,0
DA:1135,0
DA:1138,0
DA:1139,0
DA:1142,0
DA:1144,0
DA:1145,0
DA:1147,0
DA:1148,0
DA:1151,0
DA:1152,0
DA:1155,2
DA:1158,2
DA:1169,2
DA:1171,2
DA:1173,0
DA:1174,0
DA:1187,0
DA:1189,0
DA:1235,2
DA:1237,2
DA:1580,1
DA:1580,1
DA:1580,1
DA:1657,1
DA:1659,1
DA:1657,1
DA:1659,1
DA:1680,1
DA:1682,1
DA:1680,1
DA:1682,1
DA:1680,1
DA:1682,1
DA:1733,1
DA:1735,1
DA:1733,1
DA:1735,1
DA:1733,1
DA:1735,1
DA:1749,1
DA:1749,1
DA:1749,1
DA:1776,2
DA:1776,2
DA:1776,2
DA:1788,0
DA:1789,0
DA:1788,0
DA:1789,0
DA:1788,0
DA:1789,0
DA:1847,1
DA:1855,1
DA:1857,1
DA:1858,1
DA:1859,0
DA:1861,1
DA:1863,1
DA:1864,1
DA:1866,1
DA:1873,1
DA:1874,1
DA:1875,1
DA:1876,1
DA:1877,1
DA:1880,1
DA:1847,1
DA:1855,1
DA:1857,1
DA:1858,1
DA:1859,0
DA:1861,1
DA:1863,1
DA:1864,1
DA:1866,1
DA:1873,1
DA:1874,1
DA:1875,1
DA:1876,1
DA:1877,1
DA:1880,1
DA:1847,1
DA:1855,1
DA:1857,1
DA:1858,1
DA:1859,0
DA:1861,1
DA:1863,1
DA:1864,1
DA:1866,1
DA:1873,1
DA:1874,1
DA:1875,1
DA:1876,1
DA:1877,1
DA:1880,1
DA:1884,1
DA:1894,2
DA:1896,1
DA:1884,1
DA:1894,2
DA:1896,1
DA:1884,1
DA:1894,2
DA:1896,1
DA:1914,2
DA:1917,2
DA:1914,2
DA:1917,2
DA:1914,2
DA:1917,2
DA:1921,1
DA:1923,1
DA:2404,2
DA:2428,1
DA:2430,1
DA:2431,1
DA:2435,1
DA:2436,1
DA:2438,0
LF:187
LH:119
end_of_record
SF:/home/vumpus/kde/build/multimedia/elisa/src/elisa_autogen/include/moc_elisaarguments.cpp
FN:83,_ZN14ElisaArguments18qt_static_metacallEP7QObjectN11QMetaObject4CallEiPPv
FNDA:2,_ZN14ElisaArguments18qt_static_metacallEP7QObjectN11QMetaObject4CallEiPPv
FN:151,_ZNK14ElisaArguments10metaObjectEv
FNDA:5,_ZNK14ElisaArguments10metaObjectEv
FN:156,_ZN14ElisaArguments11qt_metacastEPKc
FNDA:0,_ZN14ElisaArguments11qt_metacastEPKc
FN:164,_ZN14ElisaArguments11qt_metacallEN11QMetaObject4CallEiPPv
FNDA:0,_ZN14ElisaArguments11qt_metacallEN11QMetaObject4CallEiPPv
FN:199,_ZN14ElisaArguments16argumentsChangedEv
FNDA:0,_ZN14ElisaArguments16argumentsChangedEv
FNF:5
FNH:2
DA:83,2
DA:85,2
DA:86,0
DA:88,0
DA:89,0
DA:90,0
DA:91,0
DA:93,2
DA:94,0
DA:95,0
DA:96,0
DA:97,0
DA:98,0
DA:99,0
DA:100,0
DA:102,0
DA:104,2
DA:105,0
DA:108,0
DA:109,0
DA:110,0
DA:113,2
DA:114,1
DA:115,0
DA:116,1
DA:117,1
DA:122,1
DA:123,1
DA:125,1
DA:126,1
DA:127,1
DA:128,0
DA:151,5
DA:153,5
DA:156,0
DA:158,0
DA:159,0
DA:160,0
DA:161,0
DA:164,0
DA:166,0
DA:167,0
DA:168,0
DA:169,0
DA:170,0
DA:171,0
DA:172,0
DA:173,0
DA:174,0
DA:175,0
DA:176,0
DA:179,0
DA:180,0
DA:181,0
DA:182,0
DA:183,0
DA:184,0
DA:185,0
DA:186,0
DA:187,0
DA:188,0
DA:189,0
DA:190,0
DA:191,0
DA:192,0
DA:195,0
DA:199,0
DA:201,0
DA:202,0
LF:69
LH:15
end_of_record
SF:/home/vumpus/kde/src/multimedia/elisa/src/datatypes.h
FN:426,_ZN11QMetaTypeIdISt5tupleIJN9DataTypes13MusicDataTypeE7QString4QUrlEEE14qt_metatype_idEv
FNDA:2,_ZN11QMetaTypeIdISt5tupleIJN9DataTypes13MusicDataTypeE7QString4QUrlEEE14qt_metatype_idEv
FN:427,_ZN11QMetaTypeIdI5QListISt5tupleIJN9DataTypes13MusicDataTypeE7QString4QUrlEEEE14qt_metatype_idEv
FNDA:2,_ZN11QMetaTypeIdI5QListISt5tupleIJN9DataTypes13MusicDataTypeE7QString4QUrlEEEE14qt_metatype_idEv
FNF:2
FNH:2
DA:426,2
DA:427,2
LF:2
LH:2
end_of_record
SF:/usr/include/c++/10.2.0/tuple
FN:126,_ZNSt10_Head_baseILm2E4QUrlLb0EEC2Ev
FNDA:0,_ZNSt10_Head_baseILm2E4QUrlLb0EEC2Ev
FN:126,_ZNSt10_Head_baseILm1E7QStringLb0EEC2Ev
FNDA:0,_ZNSt10_Head_baseILm1E7QStringLb0EEC2Ev
FN:126,_ZNSt10_Head_baseILm0EN9DataTypes13MusicDataTypeELb0EEC2Ev
FNDA:0,_ZNSt10_Head_baseILm0EN9DataTypes13MusicDataTypeELb0EEC2Ev
FN:132,_ZNSt10_Head_baseILm2E4QUrlLb0EEC2ERKS1_
FNDA:0,_ZNSt10_Head_baseILm2E4QUrlLb0EEC2ERKS1_
FN:132,_ZNSt10_Head_baseILm1E7QStringLb0EEC2ERKS1_
FNDA:0,_ZNSt10_Head_baseILm1E7QStringLb0EEC2ERKS1_
FN:132,_ZNSt10_Head_baseILm0EN9DataTypes13MusicDataTypeELb0EEC2ERKS2_
FNDA:0,_ZNSt10_Head_baseILm0EN9DataTypes13MusicDataTypeELb0EEC2ERKS2_
FN:169,_ZNSt10_Head_baseILm2E4QUrlLb0EE7_M_headERKS1_
FNDA:0,_ZNSt10_Head_baseILm2E4QUrlLb0EE7_M_headERKS1_
FN:169,_ZNSt10_Head_baseILm1E7QStringLb0EE7_M_headERKS1_
FNDA:0,_ZNSt10_Head_baseILm1E7QStringLb0EE7_M_headERKS1_
FN:169,_ZNSt10_Head_baseILm0EN9DataTypes13MusicDataTypeELb0EE7_M_headERKS2_
FNDA:0,_ZNSt10_Head_baseILm0EN9DataTypes13MusicDataTypeELb0EE7_M_headERKS2_
FN:204,_ZNSt11_Tuple_implILm1EJ7QString4QUrlEE7_M_headERKS2_
FNDA:0,_ZNSt11_Tuple_implILm1EJ7QString4QUrlEE7_M_headERKS2_
FN:204,_ZNSt11_Tuple_implILm0EJN9DataTypes13MusicDataTypeE7QString4QUrlEE7_M_headERKS4_
FNDA:0,_ZNSt11_Tuple_implILm0EJN9DataTypes13MusicDataTypeE7QString4QUrlEE7_M_headERKS4_
FN:212,_ZNSt11_Tuple_implILm0EJN9DataTypes13MusicDataTypeE7QString4QUrlEEC2Ev
FNDA:0,_ZNSt11_Tuple_implILm0EJN9DataTypes13MusicDataTypeE7QString4QUrlEEC2Ev
FN:212,_ZNSt11_Tuple_implILm1EJ7QString4QUrlEEC2Ev
FNDA:0,_ZNSt11_Tuple_implILm1EJ7QString4QUrlEEC2Ev
FN:226,_ZNSt11_Tuple_implILm1EJ7QString4QUrlEEC2ERKS2_
FNDA:0,_ZNSt11_Tuple_implILm1EJ7QString4QUrlEEC2ERKS2_
FN:226,_ZNSt11_Tuple_implILm0EJN9DataTypes13MusicDataTypeE7QString4QUrlEEC2ERKS4_
FNDA:0,_ZNSt11_Tuple_implILm0EJN9DataTypes13MusicDataTypeE7QString4QUrlEEC2ERKS4_
FN:352,_ZNSt11_Tuple_implILm2EJ4QUrlEE7_M_headERKS1_
FNDA:0,_ZNSt11_Tuple_implILm2EJ4QUrlEE7_M_headERKS1_
FN:354,_ZNSt11_Tuple_implILm2EJ4QUrlEEC2Ev
FNDA:0,_ZNSt11_Tuple_implILm2EJ4QUrlEEC2Ev
FN:366,_ZNSt11_Tuple_implILm2EJ4QUrlEEC2ERKS1_
FNDA:0,_ZNSt11_Tuple_implILm2EJ4QUrlEEC2ERKS1_
FN:620,_ZNSt5tupleIJN9DataTypes13MusicDataTypeE7QString4QUrlEEC2IvLb1EEEv
FNDA:0,_ZNSt5tupleIJN9DataTypes13MusicDataTypeE7QString4QUrlEEC2IvLb1EEEv
FN:661,_ZNSt5tupleIJN9DataTypes13MusicDataTypeE7QString4QUrlEEC2ERKS4_
FNDA:0,_ZNSt5tupleIJN9DataTypes13MusicDataTypeE7QString4QUrlEEC2ERKS4_
FN:1288,_ZSt12__get_helperILm0EN9DataTypes13MusicDataTypeEJ7QString4QUrlEERKT0_RKSt11_Tuple_implIXT_EJS4_DpT1_EE
FNDA:0,_ZSt12__get_helperILm0EN9DataTypes13MusicDataTypeEJ7QString4QUrlEERKT0_RKSt11_Tuple_implIXT_EJS4_DpT1_EE
FN:1288,_ZSt12__get_helperILm1E7QStringJ4QUrlEERKT0_RKSt11_Tuple_implIXT_EJS2_DpT1_EE
FNDA:0,_ZSt12__get_helperILm1E7QStringJ4QUrlEERKT0_RKSt11_Tuple_implIXT_EJS2_DpT1_EE
FN:1288,_ZSt12__get_helperILm2E4QUrlJEERKT0_RKSt11_Tuple_implIXT_EJS1_DpT1_EE
FNDA:0,_ZSt12__get_helperILm2E4QUrlJEERKT0_RKSt11_Tuple_implIXT_EJS1_DpT1_EE
FN:1300,_ZSt3getILm1EJN9DataTypes13MusicDataTypeE7QString4QUrlEERKNSt13tuple_elementIXT_ESt5tupleIJDpT0_EEE4typeERKS8_
FNDA:0,_ZSt3getILm1EJN9DataTypes13MusicDataTypeE7QString4QUrlEERKNSt13tuple_elementIXT_ESt5tupleIJDpT0_EEE4typeERKS8_
FN:1300,_ZSt3getILm0EJN9DataTypes13MusicDataTypeE7QString4QUrlEERKNSt13tuple_elementIXT_ESt5tupleIJDpT0_EEE4typeERKS8_
FNDA:0,_ZSt3getILm0EJN9DataTypes13MusicDataTypeE7QString4QUrlEERKNSt13tuple_elementIXT_ESt5tupleIJDpT0_EEE4typeERKS8_
FN:1300,_ZSt3getILm2EJN9DataTypes13MusicDataTypeE7QString4QUrlEERKNSt13tuple_elementIXT_ESt5tupleIJDpT0_EEE4typeERKS8_
FNDA:0,_ZSt3getILm2EJN9DataTypes13MusicDataTypeE7QString4QUrlEERKNSt13tuple_elementIXT_ESt5tupleIJDpT0_EEE4typeERKS8_
FN:1366,_ZNSt15__tuple_compareISt5tupleIJN9DataTypes13MusicDataTypeE7QString4QUrlEES5_Lm1ELm3EE4__eqERKS5_S8_
FNDA:0,_ZNSt15__tuple_compareISt5tupleIJN9DataTypes13MusicDataTypeE7QString4QUrlEES5_Lm1ELm3EE4__eqERKS5_S8_
FN:1366,_ZNSt15__tuple_compareISt5tupleIJN9DataTypes13MusicDataTypeE7QString4QUrlEES5_Lm2ELm3EE4__eqERKS5_S8_
FNDA:0,_ZNSt15__tuple_compareISt5tupleIJN9DataTypes13MusicDataTypeE7QString4QUrlEES5_Lm2ELm3EE4__eqERKS5_S8_
FN:1366,_ZNSt15__tuple_compareISt5tupleIJN9DataTypes13MusicDataTypeE7QString4QUrlEES5_Lm0ELm3EE4__eqERKS5_S8_
FNDA:0,_ZNSt15__tuple_compareISt5tupleIJN9DataTypes13MusicDataTypeE7QString4QUrlEES5_Lm0ELm3EE4__eqERKS5_S8_
FN:1385,_ZNSt15__tuple_compareISt5tupleIJN9DataTypes13MusicDataTypeE7QString4QUrlEES5_Lm3ELm3EE4__eqERKS5_S8_
FNDA:0,_ZNSt15__tuple_compareISt5tupleIJN9DataTypes13MusicDataTypeE7QString4QUrlEES5_Lm3ELm3EE4__eqERKS5_S8_
FN:1393,_ZSteqIJN9DataTypes13MusicDataTypeE7QString4QUrlEJS1_S2_S3_EEbRKSt5tupleIJDpT_EERKS4_IJDpT0_EE
FNDA:0,_ZSteqIJN9DataTypes13MusicDataTypeE7QString4QUrlEJS1_S2_S3_EEbRKSt5tupleIJDpT_EERKS4_IJDpT0_EE
FNF:31
FNH:0
DA:126,0
DA:127,0
DA:126,0
DA:127,0
DA:126,0
DA:127,0
DA:132,0
DA:132,0
DA:132,0
DA:169,0
DA:169,0
DA:169,0
DA:204,0
DA:204,0
DA:212,0
DA:213,0
DA:212,0
DA:213,0
DA:226,0
DA:226,0
DA:352,0
DA:354,0
DA:355,0
DA:366,0
DA:620,0
DA:622,0
DA:661,0
DA:1288,0
DA:1289,0
DA:1288,0
DA:1289,0
DA:1288,0
DA:1289,0
DA:1300,0
DA:1301,0
DA:1300,0
DA:1301,0
DA:1300,0
DA:1301,0
DA:1366,0
DA:1368,0
DA:1369,0
DA:1366,0
DA:1368,0
DA:1369,0
DA:1366,0
DA:1368,0
DA:1369,0
DA:1385,0
DA:1393,0
DA:1401,0
LF:51
LH:0
end_of_record
SF:/usr/include/qt/QtCore/qlist.h
FN:115,_ZNK9QListData4sizeEv
FNDA:0,_ZNK9QListData4sizeEv
FN:118,_ZNK9QListData5beginEv
FNDA:0,_ZNK9QListData5beginEv
FN:119,_ZNK9QListData3endEv
FNDA:0,_ZNK9QListData3endEv
FN:151,_ZN5QListISt5tupleIJN9DataTypes13MusicDataTypeE7QString4QUrlEEE4Node1tEv
FNDA:0,_ZN5QListISt5tupleIJN9DataTypes13MusicDataTypeE7QString4QUrlEEE4Node1tEv
FN:160,_ZN5QListISt5tupleIJN9DataTypes13MusicDataTypeE7QString4QUrlEEEC2Ev
FNDA:0,_ZN5QListISt5tupleIJN9DataTypes13MusicDataTypeE7QString4QUrlEEEC2Ev
FN:164,_ZN5QListISt5tupleIJN9DataTypes13MusicDataTypeE7QString4QUrlEEEC2EOS6_
FNDA:0,_ZN5QListISt5tupleIJN9DataTypes13MusicDataTypeE7QString4QUrlEEEC2EOS6_
FN:166,_ZN5QListISt5tupleIJN9DataTypes13MusicDataTypeE7QString4QUrlEEEaSEOS6_
FNDA:0,_ZN5QListISt5tupleIJN9DataTypes13MusicDataTypeE7QString4QUrlEEEaSEOS6_
FN:168,_ZN5QListISt5tupleIJN9DataTypes13MusicDataTypeE7QString4QUrlEEE4swapERS6_
FNDA:0,_ZN5QListISt5tupleIJN9DataTypes13MusicDataTypeE7QString4QUrlEEE4swapERS6_
FN:176,_ZNK5QListISt5tupleIJN9DataTypes13MusicDataTypeE7QString4QUrlEEE4sizeEv
FNDA:3,_ZNK5QListISt5tupleIJN9DataTypes13MusicDataTypeE7QString4QUrlEEE4sizeEv
FN:300,_ZN5QListISt5tupleIJN9DataTypes13MusicDataTypeE7QString4QUrlEEE14const_iteratorC2EPNS6_4NodeE
FNDA:0,_ZN5QListISt5tupleIJN9DataTypes13MusicDataTypeE7QString4QUrlEEE14const_iteratorC2EPNS6_4NodeE
FN:304,_ZN5QListISt5tupleIJN9DataTypes13MusicDataTypeE7QString4QUrlEEE14const_iteratorC2ERKS7_
FNDA:0,_ZN5QListISt5tupleIJN9DataTypes13MusicDataTypeE7QString4QUrlEEE14const_iteratorC2ERKS7_
FN:313,_ZNK5QListISt5tupleIJN9DataTypes13MusicDataTypeE7QString4QUrlEEE14const_iteratordeEv
FNDA:0,_ZNK5QListISt5tupleIJN9DataTypes13MusicDataTypeE7QString4QUrlEEE14const_iteratordeEv
FN:316,_ZNK5QListISt5tupleIJN9DataTypes13MusicDataTypeE7QString4QUrlEEE14const_iteratoreqERKS7_
FNDA:0,_ZNK5QListISt5tupleIJN9DataTypes13MusicDataTypeE7QString4QUrlEEE14const_iteratoreqERKS7_
FN:326,_ZN5QListISt5tupleIJN9DataTypes13MusicDataTypeE7QString4QUrlEEE14const_iteratorpLEx
FNDA:0,_ZN5QListISt5tupleIJN9DataTypes13MusicDataTypeE7QString4QUrlEEE14const_iteratorpLEx
FN:339,_ZNK5QListISt5tupleIJN9DataTypes13MusicDataTypeE7QString4QUrlEEE5beginEv
FNDA:0,_ZNK5QListISt5tupleIJN9DataTypes13MusicDataTypeE7QString4QUrlEEE5beginEv
FN:343,_ZNK5QListISt5tupleIJN9DataTypes13MusicDataTypeE7QString4QUrlEEE3endEv
FNDA:0,_ZNK5QListISt5tupleIJN9DataTypes13MusicDataTypeE7QString4QUrlEEE3endEv
FN:377,_ZN5QListISt5tupleIJN9DataTypes13MusicDataTypeE7QString4QUrlEEE9push_backERKS5_
FNDA:0,_ZN5QListISt5tupleIJN9DataTypes13MusicDataTypeE7QString4QUrlEEE9push_backERKS5_
FN:463,_ZN5QListISt5tupleIJN9DataTypes13MusicDataTypeE7QString4QUrlEEE14node_constructEPNS6_4NodeERKS5_
FNDA:0,_ZN5QListISt5tupleIJN9DataTypes13MusicDataTypeE7QString4QUrlEEE14node_constructEPNS6_4NodeERKS5_
FN:486,_ZN5QListISt5tupleIJN9DataTypes13MusicDataTypeE7QString4QUrlEEE9node_copyEPNS6_4NodeES8_S8_
FNDA:0,_ZN5QListISt5tupleIJN9DataTypes13MusicDataTypeE7QString4QUrlEEE9node_copyEPNS6_4NodeES8_S8_
FN:521,_ZN5QListISt5tupleIJN9DataTypes13MusicDataTypeE7QString4QUrlEEE13node_destructEPNS6_4NodeES8_
FNDA:0,_ZN5QListISt5tupleIJN9DataTypes13MusicDataTypeE7QString4QUrlEEE13node_destructEPNS6_4NodeES8_
FN:620,_ZN5QListISt5tupleIJN9DataTypes13MusicDataTypeE7QString4QUrlEEE6appendERKS5_
FNDA:0,_ZN5QListISt5tupleIJN9DataTypes13MusicDataTypeE7QString4QUrlEEE6appendERKS5_
FN:800,_ZN5QListISt5tupleIJN9DataTypes13MusicDataTypeE7QString4QUrlEEE18detach_helper_growEii
FNDA:0,_ZN5QListISt5tupleIJN9DataTypes13MusicDataTypeE7QString4QUrlEEE18detach_helper_growEii
FN:853,_ZN5QListISt5tupleIJN9DataTypes13MusicDataTypeE7QString4QUrlEEEC2ERKS6_
FNDA:0,_ZN5QListISt5tupleIJN9DataTypes13MusicDataTypeE7QString4QUrlEEEC2ERKS6_
FN:871,_ZN5QListISt5tupleIJN9DataTypes13MusicDataTypeE7QString4QUrlEEED2Ev
FNDA:0,_ZN5QListISt5tupleIJN9DataTypes13MusicDataTypeE7QString4QUrlEEED2Ev
FN:887,_ZNK5QListISt5tupleIJN9DataTypes13MusicDataTypeE7QString4QUrlEEEeqERKS6_
FNDA:0,_ZNK5QListISt5tupleIJN9DataTypes13MusicDataTypeE7QString4QUrlEEEeqERKS6_
FN:897,_ZNK5QListISt5tupleIJN9DataTypes13MusicDataTypeE7QString4QUrlEEE10op_eq_implERKS6_N9QListData24NotArrayCompatibleLayoutE
FNDA:0,_ZNK5QListISt5tupleIJN9DataTypes13MusicDataTypeE7QString4QUrlEEE10op_eq_implERKS6_N9QListData24NotArrayCompatibleLayoutE
FN:919,_ZN5QListISt5tupleIJN9DataTypes13MusicDataTypeE7QString4QUrlEEE7deallocEPN9QListData4DataE
FNDA:0,_ZN5QListISt5tupleIJN9DataTypes13MusicDataTypeE7QString4QUrlEEE7deallocEPN9QListData4DataE
FNF:27
FNH:1
DA:115,0
DA:118,0
DA:119,0
DA:151,0
DA:153,0
DA:160,0
DA:164,0
DA:165,0
DA:166,0
DA:167,0
DA:168,0
DA:176,3
DA:300,0
DA:304,0
DA:313,0
DA:316,0
DA:326,0
DA:339,0
DA:343,0
DA:377,0
DA:463,0
DA:465,0
DA:476,0
DA:486,0
DA:488,0
DA:491,0
DA:492,0
DA:493,0
DA:494,0
DA:518,0
DA:521,0
DA:524,0
DA:527,0
DA:620,0
DA:622,0
DA:623,0
DA:625,0
DA:632,0
DA:634,0
DA:651,0
DA:800,0
DA:802,0
DA:803,0
DA:805,0
DA:806,0
DA:813,0
DA:814,0
DA:823,0
DA:824,0
DA:826,0
DA:853,0
DA:854,0
DA:856,0
DA:857,0
DA:860,0
DA:861,0
DA:862,0
DA:868,0
DA:871,0
DA:873,0
DA:874,0
DA:875,0
DA:887,0
DA:889,0
DA:890,0
DA:891,0
DA:892,0
DA:893,0
DA:897,0
DA:899,0
DA:900,0
DA:901,0
DA:902,0
DA:903,0
DA:904,0
DA:906,0
DA:919,0
DA:921,0
DA:922,0
DA:923,0
DA:924,0
LF:81
LH:1
end_of_record
SF:/usr/include/c++/10.2.0/bits/stl_iterator_base_types.h
FN:238,_ZSt19__iterator_categoryIN5QListISt5tupleIJN9DataTypes13MusicDataTypeE7QString4QUrlEEE14const_iteratorEENSt15iterator_traitsIT_E17iterator_categoryERKSA_
FNDA:0,_ZSt19__iterator_categoryIN5QListISt5tupleIJN9DataTypes13MusicDataTypeE7QString4QUrlEEE14const_iteratorEENSt15iterator_traitsIT_E17iterator_categoryERKSA_
FNF:1
FNH:0
DA:238,0
DA:239,0
LF:2
LH:0
end_of_record
SF:/usr/include/qt/QtCore/qatomic_cxx11.h
FN:237,_ZN10QAtomicOpsIiE11loadRelaxedIiEET_RKSt6atomicIS2_E
FNDA:0,_ZN10QAtomicOpsIiE11loadRelaxedIiEET_RKSt6atomicIS2_E
FN:249,_ZN10QAtomicOpsIiE11loadAcquireIiEET_RKSt6atomicIS2_E
FNDA:0,_ZN10QAtomicOpsIiE11loadAcquireIiEET_RKSt6atomicIS2_E
FN:273,_ZN10QAtomicOpsIiE12storeReleaseIiEEvRSt6atomicIT_ES3_
FNDA:0,_ZN10QAtomicOpsIiE12storeReleaseIiEEvRSt6atomicIT_ES3_
FN:281,_ZN10QAtomicOpsIiE3refIiEEbRSt6atomicIT_E
FNDA:0,_ZN10QAtomicOpsIiE3refIiEEbRSt6atomicIT_E
FN:287,_ZN10QAtomicOpsIiE5derefIiEEbRSt6atomicIT_E
FNDA:0,_ZN10QAtomicOpsIiE5derefIiEEbRSt6atomicIT_E
FNF:5
FNH:0
DA:237,0
DA:239,0
DA:249,0
DA:251,0
DA:273,0
DA:275,0
DA:276,0
DA:281,0
DA:283,0
DA:287,0
DA:289,0
LF:11
LH:0
end_of_record
SF:/usr/include/qt/QtCore/qbasicatomic.h
FN:107,_ZNK19QBasicAtomicIntegerIiE11loadRelaxedEv
FNDA:0,_ZNK19QBasicAtomicIntegerIiE11loadRelaxedEv
FN:110,_ZNK19QBasicAtomicIntegerIiE11loadAcquireEv
FNDA:0,_ZNK19QBasicAtomicIntegerIiE11loadAcquireEv
FN:111,_ZN19QBasicAtomicIntegerIiE12storeReleaseEi
FNDA:0,_ZN19QBasicAtomicIntegerIiE12storeReleaseEi
FN:118,_ZN19QBasicAtomicIntegerIiE3refEv
FNDA:0,_ZN19QBasicAtomicIntegerIiE3refEv
FN:119,_ZN19QBasicAtomicIntegerIiE5derefEv
FNDA:0,_ZN19QBasicAtomicIntegerIiE5derefEv
FNF:5
FNH:0
DA:107,0
DA:110,0
DA:111,0
DA:118,0
DA:119,0
LF:5
LH:0
end_of_record
SF:/usr/include/c++/10.2.0/new
FN:174,_ZnwmPv
FNDA:0,_ZnwmPv
FNF:1
FNH:0
DA:174,0
DA:175,0
LF:2
LH:0
end_of_record
SF:/usr/include/qt/QtCore/qarraydata.h
FN:57,_ZN10QArrayData4dataEv
FNDA:0,_ZN10QArrayData4dataEv
FN:123,_ZN10QArrayData10sharedNullEv
FNDA:0,_ZN10QArrayData10sharedNullEv
FN:208,_ZN15QTypedArrayDataIcE4dataEv
FNDA:0,_ZN15QTypedArrayDataIcE4dataEv
FN:236,_ZN15QTypedArrayDataItE10deallocateEP10QArrayData
FNDA:0,_ZN15QTypedArrayDataItE10deallocateEP10QArrayData
FN:236,_ZN15QTypedArrayDataIcE10deallocateEP10QArrayData
FNDA:0,_ZN15QTypedArrayDataIcE10deallocateEP10QArrayData
FN:257,_ZN15QTypedArrayDataItE10sharedNullEv
FNDA:0,_ZN15QTypedArrayDataItE10sharedNullEv
FNF:6
FNH:0
DA:57,0
DA:59,0
DA:61,0
DA:123,0
DA:208,0
DA:236,0
DA:239,0
DA:240,0
DA:236,0
DA:239,0
DA:240,0
DA:257,0
DA:260,0
LF:13
LH:0
end_of_record
SF:/usr/include/qt/QtCore/qglobal.h
FN:973,_Z5qSwapIPN9QListData4DataEEvRT_S4_
FNDA:0,_Z5qSwapIPN9QListData4DataEEvRT_S4_
FNF:1
FNH:0
DA:973,0
DA:977,0
DA:978,0
LF:3
LH:0
end_of_record
SF:/usr/include/qt/QtCore/qstring.h
FN:1093,_ZN7QStringC2ERKS_
FNDA:0,_ZN7QStringC2ERKS_
FN:1310,_ZN7QStringC2Ev
FNDA:0,_ZN7QStringC2Ev
FN:1311,_ZN7QStringD2Ev
FNDA:0,_ZN7QStringD2Ev
FNF:3
FNH:0
DA:1093,0
DA:1094,0
DA:1310,0
DA:1311,0
LF:4
LH:0
end_of_record
SF:/usr/include/qt/QtCore/qbytearray.h
FN:495,_ZN10QByteArrayD2Ev
FNDA:0,_ZN10QByteArrayD2Ev
FN:496,_ZNK10QByteArray4sizeEv
FNDA:0,_ZNK10QByteArray4sizeEv
FN:518,_ZNK10QByteArray9constDataEv
FNDA:0,_ZNK10QByteArray9constDataEv
FN:684,_ZeqRK10QByteArrayS1_
FNDA:0,_ZeqRK10QByteArrayS1_
FNF:4
FNH:0
DA:495,0
DA:496,0
DA:497,0
DA:518,0
DA:519,0
DA:684,0
DA:685,0
LF:7
LH:0
end_of_record
SF:/usr/include/c++/10.2.0/bits/stl_iterator_base_funcs.h
FN:174,_ZSt9__advanceIN5QListISt5tupleIJN9DataTypes13MusicDataTypeE7QString4QUrlEEE14const_iteratorExEvRT_T0_St26random_access_iterator_tag
FNDA:0,_ZSt9__advanceIN5QListISt5tupleIJN9DataTypes13MusicDataTypeE7QString4QUrlEEE14const_iteratorExEvRT_T0_St26random_access_iterator_tag
FN:202,_ZSt7advanceIN5QListISt5tupleIJN9DataTypes13MusicDataTypeE7QString4QUrlEEE14const_iteratorEiEvRT_T0_
FNDA:0,_ZSt7advanceIN5QListISt5tupleIJN9DataTypes13MusicDataTypeE7QString4QUrlEEE14const_iteratorEiEvRT_T0_
FNF:2
FNH:0
DA:174,0
DA:185,0
DA:186,0
DA:202,0
DA:205,0
DA:206,0
DA:207,0
LF:7
LH:0
end_of_record
SF:/usr/include/c++/10.2.0/bits/move.h
FN:101,_ZSt4moveIRPN9QListData4DataEEONSt16remove_referenceIT_E4typeEOS5_
FNDA:0,_ZSt4moveIRPN9QListData4DataEEONSt16remove_referenceIT_E4typeEOS5_
FN:101,_ZSt4moveIR5QListISt5tupleIJN9DataTypes13MusicDataTypeE7QString4QUrlEEEEONSt16remove_referenceIT_E4typeEOSA_
FNDA:0,_ZSt4moveIR5QListISt5tupleIJN9DataTypes13MusicDataTypeE7QString4QUrlEEEEONSt16remove_referenceIT_E4typeEOSA_
FN:189,_ZSt4swapIPN9QListData4DataEENSt9enable_ifIXsrSt6__and_IJSt6__not_ISt15__is_tuple_likeIT_EESt21is_move_constructibleIS7_ESt18is_move_assignableIS7_EEE5valueEvE4typeERS7_SH_
FNDA:0,_ZSt4swapIPN9QListData4DataEENSt9enable_ifIXsrSt6__and_IJSt6__not_ISt15__is_tuple_likeIT_EESt21is_move_constructibleIS7_ESt18is_move_assignableIS7_EEE5valueEvE4typeERS7_SH_
FNF:3
FNH:0
DA:101,0
DA:102,0
DA:101,0
DA:102,0
DA:189,0
DA:197,0
DA:198,0
DA:199,0
DA:200,0
LF:9
LH:0
end_of_record
SF:/home/vumpus/kde/src/multimedia/elisa/src/elisaarguments.h
FN:23,_ZNK14ElisaArguments9argumentsEv
FNDA:1,_ZNK14ElisaArguments9argumentsEv
FN:34,_ZN14ElisaArguments12setArgumentsE5QListISt5tupleIJN9DataTypes13MusicDataTypeE7QString4QUrlEEE
FNDA:0,_ZN14ElisaArguments12setArgumentsE5QListISt5tupleIJN9DataTypes13MusicDataTypeE7QString4QUrlEEE
FNF:2
FNH:1
DA:23,1
DA:25,1
DA:34,0
DA:36,0
DA:37,0
DA:40,0
DA:41,0
LF:7
LH:2
end_of_record
SF:/home/vumpus/kde/src/multimedia/elisa/src/elisaarguments.cpp
FN:9,_ZN14ElisaArgumentsC2EP7QObject
FNDA:1,_ZN14ElisaArgumentsC2EP7QObject
FNF:1
FNH:1
DA:9,1
DA:10,1
DA:12,1
LF:3
LH:3
end_of_record
TN:
SF:/usr/include/KF5/KCoreAddons/kaboutdata.h
FN:542,_ZZN10KAboutDataC4ERK7QStringS2_S2_S2_N13KAboutLicense10LicenseKeyES2_S2_S2_S2_Ed_NKUlvE_clEv
FNDA:1,_ZZN10KAboutDataC4ERK7QStringS2_S2_S2_N13KAboutLicense10LicenseKeyES2_S2_S2_S2_Ed_NKUlvE_clEv
FNF:1
FNH:1
DA:540,1
DA:541,1
DA:542,2
DA:605,2
DA:606,2
DA:634,5
DA:635,5
LF:7
LH:7
end_of_record
SF:/usr/include/qt/QtCore/qbytearray.h
FN:494,_ZN10QByteArrayC2Ev
FNDA:1,_ZN10QByteArrayC2Ev
FN:495,_ZN10QByteArrayD2Ev
FNDA:11,_ZN10QByteArrayD2Ev
FN:496,_ZNK10QByteArray4sizeEv
FNDA:16,_ZNK10QByteArray4sizeEv
FN:518,_ZNK10QByteArray9constDataEv
FNDA:15,_ZNK10QByteArray9constDataEv
FN:530,_ZN10QByteArray7reserveEi
FNDA:1,_ZN10QByteArray7reserveEi
FN:684,_ZeqRK10QByteArrayS1_
FNDA:5,_ZeqRK10QByteArrayS1_
FNF:6
FNH:6
DA:494,1
DA:495,11
DA:496,16
DA:497,16
DA:518,15
DA:519,15
DA:530,1
DA:532,1
DA:533,1
DA:537,0
DA:539,1
DA:684,5
DA:685,5
LF:13
LH:12
end_of_record
SF:/usr/include/qt/QtCore/qglobal.h
FN:673,_Z4qMaxIjERKT_S2_S2_
FNDA:1,_Z4qMaxIjERKT_S2_S2_
FN:973,_Z5qSwapIPN9QListData4DataEEvRT_S4_
FNDA:1,_Z5qSwapIPN9QListData4DataEEvRT_S4_
FNF:2
FNH:2
DA:673,1
DA:973,1
DA:977,1
DA:978,1
LF:4
LH:4
end_of_record
SF:/usr/include/c++/10.2.0/bits/std_function.h
FN:87,_ZNSt9_Any_data9_M_accessEv
FNDA:3,_ZNSt9_Any_data9_M_accessEv
FN:88,_ZNKSt9_Any_data9_M_accessEv
FNDA:2,_ZNKSt9_Any_data9_M_accessEv
FN:92,_ZNSt9_Any_data9_M_accessIPFP7QObjectP10QQmlEngineP9QJSEngineEEERT_v
FNDA:1,_ZNSt9_Any_data9_M_accessIPFP7QObjectP10QQmlEngineP9QJSEngineEEERT_v
FN:92,_ZNSt9_Any_data9_M_accessIPPFP7QObjectP10QQmlEngineP9QJSEngineEEERT_v
FNDA:0,_ZNSt9_Any_data9_M_accessIPPFP7QObjectP10QQmlEngineP9QJSEngineEEERT_v
FN:92,_ZNSt9_Any_data9_M_accessIPKSt9type_infoEERT_v
FNDA:0,_ZNSt9_Any_data9_M_accessIPKSt9type_infoEERT_v
FN:97,_ZNKSt9_Any_data9_M_accessIPFP7QObjectP10QQmlEngineP9QJSEngineEEERKT_v
FNDA:2,_ZNKSt9_Any_data9_M_accessIPFP7QObjectP10QQmlEngineP9QJSEngineEEERKT_v
FN:136,_ZNSt14_Function_base13_Base_managerIPFP7QObjectP10QQmlEngineP9QJSEngineEE14_M_get_pointerERKSt9_Any_data
FNDA:1,_ZNSt14_Function_base13_Base_managerIPFP7QObjectP10QQmlEngineP9QJSEngineEE14_M_get_pointerERKSt9_Any_data
FN:150,_ZNSt14_Function_base13_Base_managerIPFP7QObjectP10QQmlEngineP9QJSEngineEE8_M_cloneERSt9_Any_dataRKSA_St17integral_constantIbLb1EE
FNDA:1,_ZNSt14_Function_base13_Base_managerIPFP7QObjectP10QQmlEngineP9QJSEngineEE8_M_cloneERSt9_Any_dataRKSA_St17integral_constantIbLb1EE
FN:167,_ZNSt14_Function_base13_Base_managerIPFP7QObjectP10QQmlEngineP9QJSEngineEE10_M_destroyERSt9_Any_dataSt17integral_constantIbLb1EE
FNDA:1,_ZNSt14_Function_base13_Base_managerIPFP7QObjectP10QQmlEngineP9QJSEngineEE10_M_destroyERSt9_Any_dataSt17integral_constantIbLb1EE
FN:181,_ZNSt14_Function_base13_Base_managerIPFP7QObjectP10QQmlEngineP9QJSEngineEE10_M_managerERSt9_Any_dataRKSA_St18_Manager_operation
FNDA:2,_ZNSt14_Function_base13_Base_managerIPFP7QObjectP10QQmlEngineP9QJSEngineEE10_M_managerERSt9_Any_dataRKSA_St18_Manager_operation
FN:207,_ZNSt14_Function_base13_Base_managerIPFP7QObjectP10QQmlEngineP9QJSEngineEE15_M_init_functorERSt9_Any_dataOS8_
FNDA:1,_ZNSt14_Function_base13_Base_managerIPFP7QObjectP10QQmlEngineP9QJSEngineEE15_M_init_functorERSt9_Any_dataOS8_
FN:217,_ZNSt14_Function_base13_Base_managerIPFP7QObjectP10QQmlEngineP9QJSEngineEE21_M_not_empty_functionIS7_EEbPT_
FNDA:1,_ZNSt14_Function_base13_Base_managerIPFP7QObjectP10QQmlEngineP9QJSEngineEE21_M_not_empty_functionIS7_EEbPT_
FN:232,_ZNSt14_Function_base13_Base_managerIPFP7QObjectP10QQmlEngineP9QJSEngineEE15_M_init_functorERSt9_Any_dataOS8_St17integral_constantIbLb1EE
FNDA:1,_ZNSt14_Function_base13_Base_managerIPFP7QObjectP10QQmlEngineP9QJSEngineEE15_M_init_functorERSt9_Any_dataOS8_St17integral_constantIbLb1EE
FN:240,_ZNSt14_Function_baseC2Ev
FNDA:1,_ZNSt14_Function_baseC2Ev
FN:242,_ZNSt14_Function_baseD2Ev
FNDA:1,_ZNSt14_Function_baseD2Ev
FN:268,_ZNSt17_Function_handlerIFP7QObjectP10QQmlEngineP9QJSEngineEPS6_E10_M_managerERSt9_Any_dataRKS9_St18_Manager_operation
FNDA:2,_ZNSt17_Function_handlerIFP7QObjectP10QQmlEngineP9QJSEngineEPS6_E10_M_managerERSt9_Any_dataRKS9_St18_Manager_operation
FN:289,_ZNSt17_Function_handlerIFP7QObjectP10QQmlEngineP9QJSEngineEPS6_E9_M_invokeERKSt9_Any_dataOS3_OS5_
FNDA:1,_ZNSt17_Function_handlerIFP7QObjectP10QQmlEngineP9QJSEngineEPS6_E9_M_invokeERKSt9_Any_dataOS3_OS5_
FN:601,_ZNSt8functionIFP7QObjectP10QQmlEngineP9QJSEngineEEC2IPS6_vvEET_
FNDA:1,_ZNSt8functionIFP7QObjectP10QQmlEngineP9QJSEngineEEC2IPS6_vvEET_
FNF:18
FNH:16
DA:87,3
DA:88,2
DA:92,1
DA:93,1
DA:92,0
DA:93,0
DA:92,0
DA:93,0
DA:97,2
DA:98,2
DA:136,1
DA:140,1
DA:141,1
DA:150,1
DA:152,1
DA:153,1
DA:167,1
DA:169,1
DA:170,1
DA:181,2
DA:184,2
DA:187,0
DA:188,0
DA:189,0
DA:191,0
DA:192,0
DA:193,0
DA:195,1
DA:196,1
DA:197,1
DA:199,1
DA:200,1
DA:201,1
DA:203,2
DA:207,1
DA:208,1
DA:217,1
DA:218,1
DA:232,1
DA:233,1
DA:240,1
DA:242,1
DA:243,1
DA:244,1
DA:245,1
DA:246,1
DA:268,2
DA:271,2
DA:274,0
DA:275,0
DA:276,0
DA:278,0
DA:279,0
DA:280,0
DA:282,2
DA:283,2
DA:285,2
DA:289,1
DA:291,1
DA:292,1
DA:601,1
DA:603,1
DA:607,1
DA:609,1
DA:610,1
DA:611,1
DA:613,1
LF:67
LH:51
end_of_record
SF:/home/vumpus/kde/src/multimedia/elisa/src/elisaarguments.h
FN:34,_ZN14ElisaArguments12setArgumentsE5QListISt5tupleIJN9DataTypes13MusicDataTypeE7QString4QUrlEEE
FNDA:1,_ZN14ElisaArguments12setArgumentsE5QListISt5tupleIJN9DataTypes13MusicDataTypeE7QString4QUrlEEE
FNF:1
FNH:1
DA:34,1
DA:36,1
DA:37,1
DA:40,0
DA:41,0
LF:5
LH:3
end_of_record
SF:/usr/include/c++/10.2.0/bits/move.h
FN:49,_ZSt11__addressofIKPFP7QObjectP10QQmlEngineP9QJSEngineEEPT_RS9_
FNDA:1,_ZSt11__addressofIKPFP7QObjectP10QQmlEngineP9QJSEngineEEPT_RS9_
FN:76,_ZSt7forwardIRPFP7QObjectP10QQmlEngineP9QJSEngineEEOT_RNSt16remove_referenceIS9_E4typeE
FNDA:2,_ZSt7forwardIRPFP7QObjectP10QQmlEngineP9QJSEngineEEOT_RNSt16remove_referenceIS9_E4typeE
FN:76,_ZSt7forwardIP9QJSEngineEOT_RNSt16remove_referenceIS2_E4typeE
FNDA:3,_ZSt7forwardIP9QJSEngineEOT_RNSt16remove_referenceIS2_E4typeE
FN:76,_ZSt7forwardIP10QQmlEngineEOT_RNSt16remove_referenceIS2_E4typeE
FNDA:3,_ZSt7forwardIP10QQmlEngineEOT_RNSt16remove_referenceIS2_E4typeE
FN:76,_ZSt7forwardI4QUrlEOT_RNSt16remove_referenceIS1_E4typeE
FNDA:0,_ZSt7forwardI4QUrlEOT_RNSt16remove_referenceIS1_E4typeE
FN:76,_ZSt7forwardIN9DataTypes12ColumnsRolesEEOT_RNSt16remove_referenceIS2_E4typeE
FNDA:0,_ZSt7forwardIN9DataTypes12ColumnsRolesEEOT_RNSt16remove_referenceIS2_E4typeE
FN:76,_ZSt7forwardIN10ElisaUtils17PlayListEntryTypeEEOT_RNSt16remove_referenceIS2_E4typeE
FNDA:0,_ZSt7forwardIN10ElisaUtils17PlayListEntryTypeEEOT_RNSt16remove_referenceIS2_E4typeE
FN:101,_ZSt4moveIRPN9QListData4DataEEONSt16remove_referenceIT_E4typeEOS5_
FNDA:3,_ZSt4moveIRPN9QListData4DataEEONSt16remove_referenceIT_E4typeEOS5_
FN:101,_ZSt4moveIRPFP7QObjectP10QQmlEngineP9QJSEngineEEONSt16remove_referenceIT_E4typeEOSA_
FNDA:3,_ZSt4moveIRPFP7QObjectP10QQmlEngineP9QJSEngineEEONSt16remove_referenceIT_E4typeEOSA_
FN:101,_ZSt4moveIR5QListISt5tupleIJN9DataTypes13MusicDataTypeE7QString4QUrlEEEEONSt16remove_referenceIT_E4typeEOSA_
FNDA:1,_ZSt4moveIR5QListISt5tupleIJN9DataTypes13MusicDataTypeE7QString4QUrlEEEEONSt16remove_referenceIT_E4typeEOSA_
FN:189,_ZSt4swapIPN9QListData4DataEENSt9enable_ifIXsrSt6__and_IJSt6__not_ISt15__is_tuple_likeIT_EESt21is_move_constructibleIS7_ESt18is_move_assignableIS7_EEE5valueEvE4typeERS7_SH_
FNDA:1,_ZSt4swapIPN9QListData4DataEENSt9enable_ifIXsrSt6__and_IJSt6__not_ISt15__is_tuple_likeIT_EESt21is_move_constructibleIS7_ESt18is_move_assignableIS7_EEE5valueEvE4typeERS7_SH_
FNF:11
FNH:8
DA:49,1
DA:50,1
DA:76,2
DA:77,2
DA:76,3
DA:77,3
DA:76,3
DA:77,3
DA:76,0
DA:77,0
DA:76,0
DA:77,0
DA:76,0
DA:77,0
DA:101,3
DA:102,3
DA:101,3
DA:102,3
DA:101,1
DA:102,1
DA:189,1
DA:197,1
DA:198,1
DA:199,1
DA:200,1
LF:25
LH:19
end_of_record
SF:/usr/include/c++/10.2.0/new
FN:174,_ZnwmPv
FNDA:5,_ZnwmPv
FNF:1
FNH:1
DA:174,5
DA:175,5
LF:2
LH:2
end_of_record
SF:/usr/include/c++/10.2.0/tuple
FN:129,_ZNSt10_Head_baseILm0EN9DataTypes13MusicDataTypeELb0EEC2ERKS1_
FNDA:0,_ZNSt10_Head_baseILm0EN9DataTypes13MusicDataTypeELb0EEC2ERKS1_
FN:129,_ZNSt10_Head_baseILm1E7QStringLb0EEC2ERKS0_
FNDA:0,_ZNSt10_Head_baseILm1E7QStringLb0EEC2ERKS0_
FN:129,_ZNSt10_Head_baseILm2E4QUrlLb0EEC2ERKS0_
FNDA:0,_ZNSt10_Head_baseILm2E4QUrlLb0EEC2ERKS0_
FN:132,_ZNSt10_Head_baseILm2E4QUrlLb0EEC2ERKS1_
FNDA:0,_ZNSt10_Head_baseILm2E4QUrlLb0EEC2ERKS1_
FN:132,_ZNSt10_Head_baseILm1E7QStringLb0EEC2ERKS1_
FNDA:0,_ZNSt10_Head_baseILm1E7QStringLb0EEC2ERKS1_
FN:132,_ZNSt10_Head_baseILm0EN9DataTypes13MusicDataTypeELb0EEC2ERKS2_
FNDA:0,_ZNSt10_Head_baseILm0EN9DataTypes13MusicDataTypeELb0EEC2ERKS2_
FN:169,_ZNSt10_Head_baseILm1E7QStringLb0EE7_M_headERKS1_
FNDA:0,_ZNSt10_Head_baseILm1E7QStringLb0EE7_M_headERKS1_
FN:169,_ZNSt10_Head_baseILm2E4QUrlLb0EE7_M_headERKS1_
FNDA:0,_ZNSt10_Head_baseILm2E4QUrlLb0EE7_M_headERKS1_
FN:169,_ZNSt10_Head_baseILm0EN9DataTypes13MusicDataTypeELb0EE7_M_headERKS2_
FNDA:0,_ZNSt10_Head_baseILm0EN9DataTypes13MusicDataTypeELb0EE7_M_headERKS2_
FN:204,_ZNSt11_Tuple_implILm0EJN9DataTypes13MusicDataTypeE7QString4QUrlEE7_M_headERKS4_
FNDA:0,_ZNSt11_Tuple_implILm0EJN9DataTypes13MusicDataTypeE7QString4QUrlEE7_M_headERKS4_
FN:204,_ZNSt11_Tuple_implILm1EJ7QString4QUrlEE7_M_headERKS2_
FNDA:0,_ZNSt11_Tuple_implILm1EJ7QString4QUrlEE7_M_headERKS2_
FN:216,_ZNSt11_Tuple_implILm0EJN9DataTypes13MusicDataTypeE7QString4QUrlEEC2ERKS1_RKS2_RKS3_
FNDA:0,_ZNSt11_Tuple_implILm0EJN9DataTypes13MusicDataTypeE7QString4QUrlEEC2ERKS1_RKS2_RKS3_
FN:216,_ZNSt11_Tuple_implILm1EJ7QString4QUrlEEC2ERKS0_RKS1_
FNDA:0,_ZNSt11_Tuple_implILm1EJ7QString4QUrlEEC2ERKS0_RKS1_
FN:226,_ZNSt11_Tuple_implILm1EJ7QString4QUrlEEC2ERKS2_
FNDA:0,_ZNSt11_Tuple_implILm1EJ7QString4QUrlEEC2ERKS2_
FN:226,_ZNSt11_Tuple_implILm0EJN9DataTypes13MusicDataTypeE7QString4QUrlEEC2ERKS4_
FNDA:0,_ZNSt11_Tuple_implILm0EJN9DataTypes13MusicDataTypeE7QString4QUrlEEC2ERKS4_
FN:352,_ZNSt11_Tuple_implILm2EJ4QUrlEE7_M_headERKS1_
FNDA:0,_ZNSt11_Tuple_implILm2EJ4QUrlEE7_M_headERKS1_
FN:358,_ZNSt11_Tuple_implILm2EJ4QUrlEEC2ERKS0_
FNDA:0,_ZNSt11_Tuple_implILm2EJ4QUrlEEC2ERKS0_
FN:366,_ZNSt11_Tuple_implILm2EJ4QUrlEEC2ERKS1_
FNDA:0,_ZNSt11_Tuple_implILm2EJ4QUrlEEC2ERKS1_
FN:634,_ZNSt5tupleIJN9DataTypes13MusicDataTypeE7QString4QUrlEEC2ILb1ELb1EEERKS1_RKS2_RKS3_
FNDA:0,_ZNSt5tupleIJN9DataTypes13MusicDataTypeE7QString4QUrlEEC2ILb1ELb1EEERKS1_RKS2_RKS3_
FN:661,_ZNSt5tupleIJN9DataTypes13MusicDataTypeE7QString4QUrlEEC2ERKS4_
FNDA:0,_ZNSt5tupleIJN9DataTypes13MusicDataTypeE7QString4QUrlEEC2ERKS4_
FN:1288,_ZSt12__get_helperILm0EN9DataTypes13MusicDataTypeEJ7QString4QUrlEERKT0_RKSt11_Tuple_implIXT_EJS4_DpT1_EE
FNDA:0,_ZSt12__get_helperILm0EN9DataTypes13MusicDataTypeEJ7QString4QUrlEERKT0_RKSt11_Tuple_implIXT_EJS4_DpT1_EE
FN:1288,_ZSt12__get_helperILm1E7QStringJ4QUrlEERKT0_RKSt11_Tuple_implIXT_EJS2_DpT1_EE
FNDA:0,_ZSt12__get_helperILm1E7QStringJ4QUrlEERKT0_RKSt11_Tuple_implIXT_EJS2_DpT1_EE
FN:1288,_ZSt12__get_helperILm2E4QUrlJEERKT0_RKSt11_Tuple_implIXT_EJS1_DpT1_EE
FNDA:0,_ZSt12__get_helperILm2E4QUrlJEERKT0_RKSt11_Tuple_implIXT_EJS1_DpT1_EE
FN:1300,_ZSt3getILm0EJN9DataTypes13MusicDataTypeE7QString4QUrlEERKNSt13tuple_elementIXT_ESt5tupleIJDpT0_EEE4typeERKS8_
FNDA:0,_ZSt3getILm0EJN9DataTypes13MusicDataTypeE7QString4QUrlEERKNSt13tuple_elementIXT_ESt5tupleIJDpT0_EEE4typeERKS8_
FN:1300,_ZSt3getILm1EJN9DataTypes13MusicDataTypeE7QString4QUrlEERKNSt13tuple_elementIXT_ESt5tupleIJDpT0_EEE4typeERKS8_
FNDA:0,_ZSt3getILm1EJN9DataTypes13MusicDataTypeE7QString4QUrlEERKNSt13tuple_elementIXT_ESt5tupleIJDpT0_EEE4typeERKS8_
FN:1300,_ZSt3getILm2EJN9DataTypes13MusicDataTypeE7QString4QUrlEERKNSt13tuple_elementIXT_ESt5tupleIJDpT0_EEE4typeERKS8_
FNDA:0,_ZSt3getILm2EJN9DataTypes13MusicDataTypeE7QString4QUrlEERKNSt13tuple_elementIXT_ESt5tupleIJDpT0_EEE4typeERKS8_
FN:1366,_ZNSt15__tuple_compareISt5tupleIJN9DataTypes13MusicDataTypeE7QString4QUrlEES5_Lm0ELm3EE4__eqERKS5_S8_
FNDA:0,_ZNSt15__tuple_compareISt5tupleIJN9DataTypes13MusicDataTypeE7QString4QUrlEES5_Lm0ELm3EE4__eqERKS5_S8_
FN:1366,_ZNSt15__tuple_compareISt5tupleIJN9DataTypes13MusicDataTypeE7QString4QUrlEES5_Lm1ELm3EE4__eqERKS5_S8_
FNDA:0,_ZNSt15__tuple_compareISt5tupleIJN9DataTypes13MusicDataTypeE7QString4QUrlEES5_Lm1ELm3EE4__eqERKS5_S8_
FN:1366,_ZNSt15__tuple_compareISt5tupleIJN9DataTypes13MusicDataTypeE7QString4QUrlEES5_Lm2ELm3EE4__eqERKS5_S8_
FNDA:0,_ZNSt15__tuple_compareISt5tupleIJN9DataTypes13MusicDataTypeE7QString4QUrlEES5_Lm2ELm3EE4__eqERKS5_S8_
FN:1385,_ZNSt15__tuple_compareISt5tupleIJN9DataTypes13MusicDataTypeE7QString4QUrlEES5_Lm3ELm3EE4__eqERKS5_S8_
FNDA:0,_ZNSt15__tuple_compareISt5tupleIJN9DataTypes13MusicDataTypeE7QString4QUrlEES5_Lm3ELm3EE4__eqERKS5_S8_
FN:1393,_ZSteqIJN9DataTypes13MusicDataTypeE7QString4QUrlEJS1_S2_S3_EEbRKSt5tupleIJDpT_EERKS4_IJDpT0_EE
FNDA:0,_ZSteqIJN9DataTypes13MusicDataTypeE7QString4QUrlEJS1_S2_S3_EEbRKSt5tupleIJDpT_EERKS4_IJDpT0_EE
FNF:31
FNH:0
DA:129,0
DA:130,0
DA:129,0
DA:130,0
DA:129,0
DA:130,0
DA:132,0
DA:132,0
DA:132,0
DA:169,0
DA:169,0
DA:169,0
DA:204,0
DA:204,0
DA:216,0
DA:217,0
DA:216,0
DA:217,0
DA:226,0
DA:226,0
DA:352,0
DA:358,0
DA:359,0
DA:366,0
DA:634,0
DA:636,0
DA:661,0
DA:1288,0
DA:1289,0
DA:1288,0
DA:1289,0
DA:1288,0
DA:1289,0
DA:1300,0
DA:1301,0
DA:1300,0
DA:1301,0
DA:1300,0
DA:1301,0
DA:1366,0
DA:1368,0
DA:1369,0
DA:1366,0
DA:1368,0
DA:1369,0
DA:1366,0
DA:1368,0
DA:1369,0
DA:1385,0
DA:1393,0
DA:1401,0
LF:51
LH:0
end_of_record
SF:/usr/include/c++/10.2.0/bits/invoke.h
FN:59,_ZSt13__invoke_implIP7QObjectRPFS1_P10QQmlEngineP9QJSEngineEJS3_S5_EET_St14__invoke_otherOT0_DpOT1_
FNDA:1,_ZSt13__invoke_implIP7QObjectRPFS1_P10QQmlEngineP9QJSEngineEJS3_S5_EET_St14__invoke_otherOT0_DpOT1_
FN:103,_ZSt10__invoke_rIP7QObjectRPFS1_P10QQmlEngineP9QJSEngineEJS3_S5_EENSt9enable_ifIX16is_invocable_r_vIT_T0_DpT1_EESA_E4typeEOSB_DpOSC_
FNDA:1,_ZSt10__invoke_rIP7QObjectRPFS1_P10QQmlEngineP9QJSEngineEJS3_S5_EENSt9enable_ifIX16is_invocable_r_vIT_T0_DpT1_EESA_E4typeEOSB_DpOSC_
FNF:2
FNH:2
DA:59,1
DA:60,1
DA:103,1
DA:113,1
DA:115,1
LF:5
LH:5
end_of_record
SF:/usr/include/c++/10.2.0/bits/stl_pair.h
FN:352,_ZNSt4pairIN9DataTypes12ColumnsRolesE8QVariantEC1IS1_N10ElisaUtils17PlayListEntryTypeELb1EEEOT_OT0_
FNDA:0,_ZNSt4pairIN9DataTypes12ColumnsRolesE8QVariantEC1IS1_N10ElisaUtils17PlayListEntryTypeELb1EEEOT_OT0_
FN:352,_ZNSt4pairIN9DataTypes12ColumnsRolesE8QVariantEC1IS1_4QUrlLb1EEEOT_OT0_
FNDA:0,_ZNSt4pairIN9DataTypes12ColumnsRolesE8QVariantEC1IS1_4QUrlLb1EEEOT_OT0_
FNF:2
FNH:0
DA:352,0
DA:353,0
DA:352,0
DA:353,0
LF:4
LH:0
end_of_record
SF:/home/vumpus/kde/src/multimedia/elisa/src/datatypes.h
LF:0
LH:0
end_of_record
SF:/usr/include/qt/QtCore/qlist.h
FN:115,_ZNK9QListData4sizeEv
FNDA:3,_ZNK9QListData4sizeEv
FN:118,_ZNK9QListData5beginEv
FNDA:3,_ZNK9QListData5beginEv
FN:119,_ZNK9QListData3endEv
FNDA:2,_ZNK9QListData3endEv
FN:151,_ZN5QListISt5tupleIJN9DataTypes13MusicDataTypeE7QString4QUrlEEE4Node1tEv
FNDA:0,_ZN5QListISt5tupleIJN9DataTypes13MusicDataTypeE7QString4QUrlEEE4Node1tEv
FN:151,_ZN5QListI7QStringE4Node1tEv
FNDA:0,_ZN5QListI7QStringE4Node1tEv
FN:160,_ZN5QListISt5tupleIJN9DataTypes13MusicDataTypeE7QString4QUrlEEEC2Ev
FNDA:4,_ZN5QListISt5tupleIJN9DataTypes13MusicDataTypeE7QString4QUrlEEEC2Ev
FN:164,_ZN5QListISt5tupleIJN9DataTypes13MusicDataTypeE7QString4QUrlEEEC2EOS6_
FNDA:1,_ZN5QListISt5tupleIJN9DataTypes13MusicDataTypeE7QString4QUrlEEEC2EOS6_
FN:166,_ZN5QListISt5tupleIJN9DataTypes13MusicDataTypeE7QString4QUrlEEEaSEOS6_
FNDA:1,_ZN5QListISt5tupleIJN9DataTypes13MusicDataTypeE7QString4QUrlEEEaSEOS6_
FN:168,_ZN5QListISt5tupleIJN9DataTypes13MusicDataTypeE7QString4QUrlEEE4swapERS6_
FNDA:1,_ZN5QListISt5tupleIJN9DataTypes13MusicDataTypeE7QString4QUrlEEE4swapERS6_
FN:178,_ZN5QListI7QStringE6detachEv
FNDA:2,_ZN5QListI7QStringE6detachEv
FN:245,_ZN5QListI7QStringE8iteratorC2EPNS1_4NodeE
FNDA:2,_ZN5QListI7QStringE8iteratorC2EPNS1_4NodeE
FN:253,_ZNK5QListI7QStringE8iteratordeEv
FNDA:0,_ZNK5QListI7QStringE8iteratordeEv
FN:257,_ZNK5QListI7QStringE8iteratorneERKS2_
FNDA:1,_ZNK5QListI7QStringE8iteratorneERKS2_
FN:276,_ZN5QListI7QStringE8iteratorppEv
FNDA:0,_ZN5QListI7QStringE8iteratorppEv
FN:338,_ZN5QListI7QStringE5beginEv
FNDA:1,_ZN5QListI7QStringE5beginEv
FN:342,_ZN5QListI7QStringE3endEv
FNDA:1,_ZN5QListI7QStringE3endEv
FN:377,_ZN5QListISt5tupleIJN9DataTypes13MusicDataTypeE7QString4QUrlEEE9push_backERKS5_
FNDA:0,_ZN5QListISt5tupleIJN9DataTypes13MusicDataTypeE7QString4QUrlEEE9push_backERKS5_
FN:463,_ZN5QListISt5tupleIJN9DataTypes13MusicDataTypeE7QString4QUrlEEE14node_constructEPNS6_4NodeERKS5_
FNDA:0,_ZN5QListISt5tupleIJN9DataTypes13MusicDataTypeE7QString4QUrlEEE14node_constructEPNS6_4NodeERKS5_
FN:486,_ZN5QListI7QStringE9node_copyEPNS1_4NodeES3_S3_
FNDA:1,_ZN5QListI7QStringE9node_copyEPNS1_4NodeES3_S3_
FN:486,_ZN5QListISt5tupleIJN9DataTypes13MusicDataTypeE7QString4QUrlEEE9node_copyEPNS6_4NodeES8_S8_
FNDA:0,_ZN5QListISt5tupleIJN9DataTypes13MusicDataTypeE7QString4QUrlEEE9node_copyEPNS6_4NodeES8_S8_
FN:521,_ZN5QListI7QStringE13node_destructEPNS1_4NodeES3_
FNDA:1,_ZN5QListI7QStringE13node_destructEPNS1_4NodeES3_
FN:521,_ZN5QListISt5tupleIJN9DataTypes13MusicDataTypeE7QString4QUrlEEE13node_destructEPNS6_4NodeES8_
FNDA:0,_ZN5QListISt5tupleIJN9DataTypes13MusicDataTypeE7QString4QUrlEEE13node_destructEPNS6_4NodeES8_
FN:620,_ZN5QListISt5tupleIJN9DataTypes13MusicDataTypeE7QString4QUrlEEE6appendERKS5_
FNDA:0,_ZN5QListISt5tupleIJN9DataTypes13MusicDataTypeE7QString4QUrlEEE6appendERKS5_
FN:800,_ZN5QListISt5tupleIJN9DataTypes13MusicDataTypeE7QString4QUrlEEE18detach_helper_growEii
FNDA:0,_ZN5QListISt5tupleIJN9DataTypes13MusicDataTypeE7QString4QUrlEEE18detach_helper_growEii
FN:830,_ZN5QListI7QStringE13detach_helperEi
FNDA:1,_ZN5QListI7QStringE13detach_helperEi
FN:847,_ZN5QListI7QStringE13detach_helperEv
FNDA:1,_ZN5QListI7QStringE13detach_helperEv
FN:853,_ZN5QListISt5tupleIJN9DataTypes13MusicDataTypeE7QString4QUrlEEEC2ERKS6_
FNDA:3,_ZN5QListISt5tupleIJN9DataTypes13MusicDataTypeE7QString4QUrlEEEC2ERKS6_
FN:871,_ZN5QListISt5tupleIJN9DataTypes13MusicDataTypeE7QString4QUrlEEED2Ev
FNDA:8,_ZN5QListISt5tupleIJN9DataTypes13MusicDataTypeE7QString4QUrlEEED2Ev
FN:871,_ZN5QListI7QStringED2Ev
FNDA:1,_ZN5QListI7QStringED2Ev
FN:887,_ZNK5QListISt5tupleIJN9DataTypes13MusicDataTypeE7QString4QUrlEEEeqERKS6_
FNDA:1,_ZNK5QListISt5tupleIJN9DataTypes13MusicDataTypeE7QString4QUrlEEEeqERKS6_
FN:897,_ZNK5QListISt5tupleIJN9DataTypes13MusicDataTypeE7QString4QUrlEEE10op_eq_implERKS6_N9QListData24NotArrayCompatibleLayoutE
FNDA:0,_ZNK5QListISt5tupleIJN9DataTypes13MusicDataTypeE7QString4QUrlEEE10op_eq_implERKS6_N9QListData24NotArrayCompatibleLayoutE
FN:919,_ZN5QListI7QStringE7deallocEPN9QListData4DataE
FNDA:1,_ZN5QListI7QStringE7deallocEPN9QListData4DataE
FN:919,_ZN5QListISt5tupleIJN9DataTypes13MusicDataTypeE7QString4QUrlEEE7deallocEPN9QListData4DataE
FNDA:0,_ZN5QListISt5tupleIJN9DataTypes13MusicDataTypeE7QString4QUrlEEE7deallocEPN9QListData4DataE
FNF:33
FNH:21
DA:115,3
DA:118,3
DA:119,2
DA:151,0
DA:153,0
DA:151,0
DA:153,0
DA:160,4
DA:164,1
DA:165,1
DA:166,1
DA:167,1
DA:168,1
DA:178,2
DA:245,2
DA:253,0
DA:257,1
DA:276,0
DA:338,1
DA:342,1
DA:377,0
DA:463,0
DA:465,0
DA:476,0
DA:486,0
DA:488,0
DA:491,0
DA:492,0
DA:493,0
DA:494,0
DA:518,0
DA:486,1
DA:488,1
DA:504,1
DA:505,0
DA:506,0
DA:507,0
DA:518,1
DA:521,0
DA:524,0
DA:527,0
DA:521,1
DA:526,1
DA:527,1
DA:620,0
DA:622,0
DA:623,0
DA:625,0
DA:632,0
DA:634,0
DA:651,0
DA:800,0
DA:802,0
DA:803,0
DA:805,0
DA:806,0
DA:813,0
DA:814,0
DA:823,0
DA:824,0
DA:826,0
DA:830,1
DA:832,1
DA:833,1
DA:835,1
DA:842,1
DA:843,0
DA:844,1
DA:847,1
DA:849,1
DA:850,1
DA:853,3
DA:854,3
DA:856,3
DA:857,0
DA:860,0
DA:861,0
DA:862,0
DA:868,3
DA:871,8
DA:873,8
DA:874,0
DA:875,8
DA:871,1
DA:873,1
DA:874,1
DA:875,1
DA:887,1
DA:889,1
DA:890,1
DA:891,0
DA:892,0
DA:893,0
DA:897,0
DA:899,0
DA:900,0
DA:901,0
DA:902,0
DA:903,0
DA:904,0
DA:906,0
DA:919,0
DA:921,0
DA:922,0
DA:923,0
DA:924,0
DA:919,1
DA:921,1
DA:922,1
DA:923,1
DA:924,1
LF:111
LH:49
end_of_record
SF:/usr/include/KF5/KI18n/klocalizedstring.h
FN:1121,_Z4i18nPKc
FNDA:10,_Z4i18nPKc
FNF:1
FNH:1
DA:1121,10
DA:1123,10
LF:2
LH:2
end_of_record
SF:/usr/include/qt/QtQml/qqmlprivate.h
FN:501,_ZN11QQmlPrivateL19indexOfOwnClassInfoEPK11QMetaObjectPKc
FNDA:0,_ZN11QQmlPrivateL19indexOfOwnClassInfoEPK11QMetaObjectPKc
FNF:1
FNH:0
DA:501,0
DA:503,0
DA:504,0
DA:506,0
DA:507,0
DA:508,0
DA:509,0
DA:511,0
LF:8
LH:0
end_of_record
SF:/usr/include/qt/QtCore/qmap.h
FN:66,_Z15qMapLessThanKeyIN9DataTypes12ColumnsRolesEEbRKT_S4_
FNDA:0,_Z15qMapLessThanKeyIN9DataTypes12ColumnsRolesEEbRKT_S4_
FN:93,_ZNK12QMapNodeBase5colorEv
FNDA:0,_ZNK12QMapNodeBase5colorEv
FN:94,_ZN12QMapNodeBase8setColorENS_5ColorE
FNDA:0,_ZN12QMapNodeBase8setColorENS_5ColorE
FN:96,_ZN12QMapNodeBase9setParentEPS_
FNDA:0,_ZN12QMapNodeBase9setParentEPS_
FN:100,_ZN12QMapNodeBase25callDestructorIfNecessaryI8QVariantEENSt9enable_ifIXsr9QTypeInfoIT_E9isComplexEvE4typeERS4_
FNDA:0,_ZN12QMapNodeBase25callDestructorIfNecessaryI8QVariantEENSt9enable_ifIXsr9QTypeInfoIT_E9isComplexEvE4typeERS4_
FN:103,_ZN12QMapNodeBase25callDestructorIfNecessaryIN9DataTypes12ColumnsRolesEEENSt9enable_ifIXntsr9QTypeInfoIT_E9isComplexEvE4typeERS5_
FNDA:0,_ZN12QMapNodeBase25callDestructorIfNecessaryIN9DataTypes12ColumnsRolesEEENSt9enable_ifIXntsr9QTypeInfoIT_E9isComplexEvE4typeERS5_
FN:112,_ZNK8QMapNodeIN9DataTypes12ColumnsRolesE8QVariantE8leftNodeEv
FNDA:0,_ZNK8QMapNodeIN9DataTypes12ColumnsRolesE8QVariantE8leftNodeEv
FN:113,_ZNK8QMapNodeIN9DataTypes12ColumnsRolesE8QVariantE9rightNodeEv
FNDA:0,_ZNK8QMapNodeIN9DataTypes12ColumnsRolesE8QVariantE9rightNodeEv
FN:115,_ZNK8QMapNodeIN9DataTypes12ColumnsRolesE8QVariantE8nextNodeEv
FNDA:0,_ZNK8QMapNodeIN9DataTypes12ColumnsRolesE8QVariantE8nextNodeEv
FN:122,_ZN8QMapNodeIN9DataTypes12ColumnsRolesE8QVariantE14destroySubTreeEv
FNDA:0,_ZN8QMapNodeIN9DataTypes12ColumnsRolesE8QVariantE14destroySubTreeEv
FN:134,_ZN8QMapNodeIN9DataTypes12ColumnsRolesE8QVariantE16doDestroySubTreeESt17integral_constantIbLb1EE
FNDA:0,_ZN8QMapNodeIN9DataTypes12ColumnsRolesE8QVariantE16doDestroySubTreeESt17integral_constantIbLb1EE
FN:208,_ZNK8QMapDataIN9DataTypes12ColumnsRolesE8QVariantE4rootEv
FNDA:0,_ZNK8QMapDataIN9DataTypes12ColumnsRolesE8QVariantE4rootEv
FN:215,_ZN8QMapDataIN9DataTypes12ColumnsRolesE8QVariantE3endEv
FNDA:0,_ZN8QMapDataIN9DataTypes12ColumnsRolesE8QVariantE3endEv
FN:218,_ZN8QMapDataIN9DataTypes12ColumnsRolesE8QVariantE5beginEv
FNDA:0,_ZN8QMapDataIN9DataTypes12ColumnsRolesE8QVariantE5beginEv
FN:224,_ZN8QMapDataIN9DataTypes12ColumnsRolesE8QVariantE10createNodeERKS1_RKS2_P8QMapNodeIS1_S2_Eb
FNDA:0,_ZN8QMapDataIN9DataTypes12ColumnsRolesE8QVariantE10createNodeERKS1_RKS2_P8QMapNodeIS1_S2_Eb
FN:243,_ZN8QMapDataIN9DataTypes12ColumnsRolesE8QVariantE6createEv
FNDA:0,_ZN8QMapDataIN9DataTypes12ColumnsRolesE8QVariantE6createEv
FN:247,_ZN8QMapDataIN9DataTypes12ColumnsRolesE8QVariantE7destroyEv
FNDA:0,_ZN8QMapDataIN9DataTypes12ColumnsRolesE8QVariantE7destroyEv
FN:257,_ZNK8QMapNodeIN9DataTypes12ColumnsRolesE8QVariantE4copyEP8QMapDataIS1_S2_E
FNDA:0,_ZNK8QMapNodeIN9DataTypes12ColumnsRolesE8QVariantE4copyEP8QMapDataIS1_S2_E
FN:330,_ZN4QMapIN9DataTypes12ColumnsRolesE8QVariantEC2ESt16initializer_listISt4pairIS1_S2_EE
FNDA:0,_ZN4QMapIN9DataTypes12ColumnsRolesE8QVariantEC2ESt16initializer_listISt4pairIS1_S2_EE
FN:338,_ZN4QMapIN9DataTypes12ColumnsRolesE8QVariantED2Ev
FNDA:0,_ZN4QMapIN9DataTypes12ColumnsRolesE8QVariantED2Ev
FN:357,_ZNK4QMapIN9DataTypes12ColumnsRolesE8QVariantE4sizeEv
FNDA:0,_ZNK4QMapIN9DataTypes12ColumnsRolesE8QVariantE4sizeEv
FN:361,_ZN4QMapIN9DataTypes12ColumnsRolesE8QVariantE6detachEv
FNDA:0,_ZN4QMapIN9DataTypes12ColumnsRolesE8QVariantE6detachEv
FN:420,_ZN4QMapIN9DataTypes12ColumnsRolesE8QVariantE8iteratorC2EP8QMapNodeIS1_S2_E
FNDA:0,_ZN4QMapIN9DataTypes12ColumnsRolesE8QVariantE8iteratorC2EP8QMapNodeIS1_S2_E
FN:479,_ZN4QMapIN9DataTypes12ColumnsRolesE8QVariantE14const_iteratorC2EPK8QMapNodeIS1_S2_E
FNDA:0,_ZN4QMapIN9DataTypes12ColumnsRolesE8QVariantE14const_iteratorC2EPK8QMapNodeIS1_S2_E
FN:487,_ZNK4QMapIN9DataTypes12ColumnsRolesE8QVariantE14const_iterator3keyEv
FNDA:0,_ZNK4QMapIN9DataTypes12ColumnsRolesE8QVariantE14const_iterator3keyEv
FN:488,_ZNK4QMapIN9DataTypes12ColumnsRolesE8QVariantE14const_iterator5valueEv
FNDA:0,_ZNK4QMapIN9DataTypes12ColumnsRolesE8QVariantE14const_iterator5valueEv
FN:492,_ZNK4QMapIN9DataTypes12ColumnsRolesE8QVariantE14const_iteratorneERKS4_
FNDA:0,_ZNK4QMapIN9DataTypes12ColumnsRolesE8QVariantE14const_iteratorneERKS4_
FN:494,_ZN4QMapIN9DataTypes12ColumnsRolesE8QVariantE14const_iteratorppEv
FNDA:0,_ZN4QMapIN9DataTypes12ColumnsRolesE8QVariantE14const_iteratorppEv
FN:560,_ZNK4QMapIN9DataTypes12ColumnsRolesE8QVariantE5beginEv
FNDA:0,_ZNK4QMapIN9DataTypes12ColumnsRolesE8QVariantE5beginEv
FN:564,_ZNK4QMapIN9DataTypes12ColumnsRolesE8QVariantE3endEv
FNDA:0,_ZNK4QMapIN9DataTypes12ColumnsRolesE8QVariantE3endEv
FN:629,_ZN4QMapIN9DataTypes12ColumnsRolesE8QVariantEC2ERKS3_
FNDA:0,_ZN4QMapIN9DataTypes12ColumnsRolesE8QVariantEC2ERKS3_
FN:711,_ZN4QMapIN9DataTypes12ColumnsRolesE8QVariantE6insertERKS1_RKS2_
FNDA:0,_ZN4QMapIN9DataTypes12ColumnsRolesE8QVariantE6insertERKS1_RKS2_
FN:972,_ZN4QMapIN9DataTypes12ColumnsRolesE8QVariantE13detach_helperEv
FNDA:0,_ZN4QMapIN9DataTypes12ColumnsRolesE8QVariantE13detach_helperEv
FN:1077,_ZNK4QMapIN9DataTypes12ColumnsRolesE8QVariantEeqERKS3_
FNDA:0,_ZNK4QMapIN9DataTypes12ColumnsRolesE8QVariantEeqERKS3_
FNF:34
FNH:0
DA:66,0
DA:68,0
DA:93,0
DA:94,0
DA:96,0
DA:100,0
DA:103,0
DA:112,0
DA:113,0
DA:115,0
DA:122,0
DA:124,0
DA:125,0
DA:126,0
DA:127,0
DA:134,0
DA:136,0
DA:137,0
DA:138,0
DA:139,0
DA:140,0
DA:208,0
DA:215,0
DA:218,0
DA:224,0
DA:226,0
DA:229,0
DA:231,0
DA:240,0
DA:243,0
DA:244,0
DA:247,0
DA:248,0
DA:249,0
DA:250,0
DA:252,0
DA:253,0
DA:257,0
DA:259,0
DA:260,0
DA:261,0
DA:262,0
DA:263,0
DA:265,0
DA:267,0
DA:268,0
DA:269,0
DA:271,0
DA:273,0
DA:330,0
DA:331,0
DA:333,0
DA:334,0
DA:335,0
DA:338,0
DA:357,0
DA:361,0
DA:420,0
DA:479,0
DA:487,0
DA:488,0
DA:492,0
DA:494,0
DA:495,0
DA:496,0
DA:560,0
DA:564,0
DA:629,0
DA:631,0
DA:632,0
DA:634,0
DA:635,0
DA:636,0
DA:637,0
DA:638,0
DA:641,0
DA:711,0
DA:713,0
DA:714,0
DA:715,0
DA:716,0
DA:717,0
DA:718,0
DA:719,0
DA:720,0
DA:721,0
DA:722,0
DA:723,0
DA:725,0
DA:726,0
DA:729,0
DA:730,0
DA:731,0
DA:733,0
DA:734,0
DA:972,0
DA:974,0
DA:975,0
DA:976,0
DA:977,0
DA:979,0
DA:980,0
DA:981,0
DA:982,0
DA:983,0
DA:1077,0
DA:1079,0
DA:1080,0
DA:1081,0
DA:1082,0
DA:1084,0
DA:1085,0
DA:1087,0
DA:1088,0
DA:1089,0
DA:1090,0
DA:1091,0
DA:1093,0
LF:118
LH:0
end_of_record
SF:/usr/include/qt/QtCore/qobject.h
FN:519,_Z12qobject_castIP14ElisaArgumentsET_P7QObject
FNDA:1,_Z12qobject_castIP14ElisaArgumentsET_P7QObject
FNF:1
FNH:1
DA:519,1
DA:524,1
LF:2
LH:2
end_of_record
SF:/usr/include/qt/QtCore/qstringlist.h
LF:0
LH:0
end_of_record
SF:/usr/include/qt/QtCore/qvariant.h
FN:462,_ZNK8QVarianteqERKS_
FNDA:0,_ZNK8QVarianteqERKS_
FNF:1
FNH:0
DA:462,0
DA:463,0
LF:2
LH:0
end_of_record
SF:/usr/include/qt/QtCore/qrefcount.h
FN:54,_ZN9QtPrivate8RefCount3refEv
FNDA:3,_ZN9QtPrivate8RefCount3refEv
FN:65,_ZN9QtPrivate8RefCount5derefEv
FNDA:69,_ZN9QtPrivate8RefCount5derefEv
FN:93,_ZNK9QtPrivate8RefCount8isStaticEv
FNDA:22,_ZNK9QtPrivate8RefCount8isStaticEv
FN:99,_ZNK9QtPrivate8RefCount8isSharedEv
FNDA:3,_ZNK9QtPrivate8RefCount8isSharedEv
FNF:4
FNH:4
DA:54,3
DA:55,3
DA:57,3
DA:58,0
DA:60,3
DA:61,0
DA:62,3
DA:65,69
DA:66,69
DA:68,69
DA:69,0
DA:71,69
DA:72,47
DA:73,22
DA:93,22
DA:96,22
DA:99,3
DA:101,3
DA:102,3
LF:19
LH:16
end_of_record
SF:/usr/include/qt/QtCore/qstring.h
FN:967,_ZN7QStringC2E14QStringDataPtr
FNDA:22,_ZN7QStringC2E14QStringDataPtr
FN:1093,_ZN7QStringC2ERKS_
FNDA:0,_ZN7QStringC2ERKS_
FN:1310,_ZN7QStringC2Ev
FNDA:16,_ZN7QStringC2Ev
FN:1311,_ZN7QStringD2Ev
FNDA:48,_ZN7QStringD2Ev
FNF:4
FNH:3
DA:967,22
DA:1093,0
DA:1094,0
DA:1310,16
DA:1311,48
LF:5
LH:3
end_of_record
SF:/usr/include/qt/QtCore/qatomic_cxx11.h
FN:237,_ZN10QAtomicOpsIiE11loadRelaxedIiEET_RKSt6atomicIS2_E
FNDA:97,_ZN10QAtomicOpsIiE11loadRelaxedIiEET_RKSt6atomicIS2_E
FN:249,_ZN10QAtomicOpsIiE11loadAcquireIiEET_RKSt6atomicIS2_E
FNDA:7,_ZN10QAtomicOpsIiE11loadAcquireIiEET_RKSt6atomicIS2_E
FN:273,_ZN10QAtomicOpsIiE12storeReleaseIiEEvRSt6atomicIT_ES3_
FNDA:4,_ZN10QAtomicOpsIiE12storeReleaseIiEEvRSt6atomicIT_ES3_
FN:281,_ZN10QAtomicOpsIiE3refIiEEbRSt6atomicIT_E
FNDA:0,_ZN10QAtomicOpsIiE3refIiEEbRSt6atomicIT_E
FN:287,_ZN10QAtomicOpsIiE5derefIiEEbRSt6atomicIT_E
FNDA:22,_ZN10QAtomicOpsIiE5derefIiEEbRSt6atomicIT_E
FNF:5
FNH:4
DA:237,97
DA:239,194
DA:249,7
DA:251,14
DA:273,4
DA:275,4
DA:276,4
DA:281,0
DA:283,0
DA:287,22
DA:289,22
LF:11
LH:9
end_of_record
SF:/usr/include/qt/QtCore/qbasicatomic.h
FN:107,_ZNK19QBasicAtomicIntegerIiE11loadRelaxedEv
FNDA:97,_ZNK19QBasicAtomicIntegerIiE11loadRelaxedEv
FN:110,_ZNK19QBasicAtomicIntegerIiE11loadAcquireEv
FNDA:7,_ZNK19QBasicAtomicIntegerIiE11loadAcquireEv
FN:111,_ZN19QBasicAtomicIntegerIiE12storeReleaseEi
FNDA:4,_ZN19QBasicAtomicIntegerIiE12storeReleaseEi
FN:118,_ZN19QBasicAtomicIntegerIiE3refEv
FNDA:0,_ZN19QBasicAtomicIntegerIiE3refEv
FN:119,_ZN19QBasicAtomicIntegerIiE5derefEv
FNDA:22,_ZN19QBasicAtomicIntegerIiE5derefEv
FNF:5
FNH:4
DA:107,97
DA:110,7
DA:111,4
DA:118,0
DA:119,22
LF:5
LH:4
end_of_record
SF:/usr/include/qt/QtCore/qstringliteral.h
FN:94,_ZNK17QStaticStringDataILi28EE8data_ptrEv
FNDA:1,_ZNK17QStaticStringDataILi28EE8data_ptrEv
FN:94,_ZNK17QStaticStringDataILi6EE8data_ptrEv
FNDA:1,_ZNK17QStaticStringDataILi6EE8data_ptrEv
FN:94,_ZNK17QStaticStringDataILi15EE8data_ptrEv
FNDA:1,_ZNK17QStaticStringDataILi15EE8data_ptrEv
FN:94,_ZNK17QStaticStringDataILi14EE8data_ptrEv
FNDA:1,_ZNK17QStaticStringDataILi14EE8data_ptrEv
FN:94,_ZNK17QStaticStringDataILi26EE8data_ptrEv
FNDA:1,_ZNK17QStaticStringDataILi26EE8data_ptrEv
FN:94,_ZNK17QStaticStringDataILi24EE8data_ptrEv
FNDA:1,_ZNK17QStaticStringDataILi24EE8data_ptrEv
FN:94,_ZNK17QStaticStringDataILi13EE8data_ptrEv
FNDA:3,_ZNK17QStaticStringDataILi13EE8data_ptrEv
FN:94,_ZNK17QStaticStringDataILi12EE8data_ptrEv
FNDA:2,_ZNK17QStaticStringDataILi12EE8data_ptrEv
FN:94,_ZNK17QStaticStringDataILi11EE8data_ptrEv
FNDA:3,_ZNK17QStaticStringDataILi11EE8data_ptrEv
FN:94,_ZNK17QStaticStringDataILi20EE8data_ptrEv
FNDA:2,_ZNK17QStaticStringDataILi20EE8data_ptrEv
FN:94,_ZNK17QStaticStringDataILi16EE8data_ptrEv
FNDA:1,_ZNK17QStaticStringDataILi16EE8data_ptrEv
FN:94,_ZNK17QStaticStringDataILi8EE8data_ptrEv
FNDA:1,_ZNK17QStaticStringDataILi8EE8data_ptrEv
FN:94,_ZNK17QStaticStringDataILi5EE8data_ptrEv
FNDA:2,_ZNK17QStaticStringDataILi5EE8data_ptrEv
FN:94,_ZNK17QStaticStringDataILi19EE8data_ptrEv
FNDA:2,_ZNK17QStaticStringDataILi19EE8data_ptrEv
FNF:14
FNH:14
DA:94,1
DA:96,1
DA:97,1
DA:94,1
DA:96,1
DA:97,1
DA:94,1
DA:96,1
DA:97,1
DA:94,1
DA:96,1
DA:97,1
DA:94,1
DA:96,1
DA:97,1
DA:94,1
DA:96,1
DA:97,1
DA:94,3
DA:96,3
DA:97,3
DA:94,2
DA:96,2
DA:97,2
DA:94,3
DA:96,3
DA:97,3
DA:94,2
DA:96,2
DA:97,2
DA:94,1
DA:96,1
DA:97,1
DA:94,1
DA:96,1
DA:97,1
DA:94,2
DA:96,2
DA:97,2
DA:94,2
DA:96,2
DA:97,2
LF:42
LH:42
end_of_record
SF:/usr/include/c++/10.2.0/initializer_list
FN:71,_ZNKSt16initializer_listISt4pairIN9DataTypes12ColumnsRolesE8QVariantEE4sizeEv
FNDA:0,_ZNKSt16initializer_listISt4pairIN9DataTypes12ColumnsRolesE8QVariantEE4sizeEv
FN:75,_ZNKSt16initializer_listISt4pairIN9DataTypes12ColumnsRolesE8QVariantEE5beginEv
FNDA:0,_ZNKSt16initializer_listISt4pairIN9DataTypes12ColumnsRolesE8QVariantEE5beginEv
FN:79,_ZNKSt16initializer_listISt4pairIN9DataTypes12ColumnsRolesE8QVariantEE3endEv
FNDA:0,_ZNKSt16initializer_listISt4pairIN9DataTypes12ColumnsRolesE8QVariantEE3endEv
FNF:3
FNH:0
DA:71,0
DA:75,0
DA:79,0
LF:3
LH:0
end_of_record
SF:/usr/include/qt/QtQml/qqmlengine.h
FN:179,_ZN10QQmlEngine17singletonInstanceIP14ElisaArgumentsEET_i
FNDA:1,_ZN10QQmlEngine17singletonInstanceIP14ElisaArgumentsEET_i
FNF:1
FNH:1
DA:179,1
DA:180,1
LF:2
LH:2
end_of_record
SF:/usr/include/qt/QtCore/qarraydata.h
FN:57,_ZN10QArrayData4dataEv
FNDA:15,_ZN10QArrayData4dataEv
FN:99,_ZNK10QArrayData11detachFlagsEv
FNDA:1,_ZNK10QArrayData11detachFlagsEv
FN:123,_ZN10QArrayData10sharedNullEv
FNDA:17,_ZN10QArrayData10sharedNullEv
FN:208,_ZN15QTypedArrayDataIcE4dataEv
FNDA:15,_ZN15QTypedArrayDataIcE4dataEv
FN:236,_ZN15QTypedArrayDataItE10deallocateEP10QArrayData
FNDA:0,_ZN15QTypedArrayDataItE10deallocateEP10QArrayData
FN:236,_ZN15QTypedArrayDataIcE10deallocateEP10QArrayData
FNDA:9,_ZN15QTypedArrayDataIcE10deallocateEP10QArrayData
FN:257,_ZN15QTypedArrayDataItE10sharedNullEv
FNDA:16,_ZN15QTypedArrayDataItE10sharedNullEv
FN:257,_ZN15QTypedArrayDataIcE10sharedNullEv
FNDA:1,_ZN15QTypedArrayDataIcE10sharedNullEv
FNF:8
FNH:7
DA:57,15
DA:59,15
DA:61,15
DA:99,1
DA:101,1
DA:102,1
DA:103,0
DA:104,1
DA:123,17
DA:208,15
DA:236,0
DA:239,0
DA:240,0
DA:236,9
DA:239,9
DA:240,9
DA:257,16
DA:260,16
DA:257,1
DA:260,1
LF:20
LH:16
end_of_record
SF:/usr/include/qt/QtCore/qvarlengtharray.h
FN:87,_ZN15QVarLengthArrayIcLi64EED2Ev
FNDA:1,_ZN15QVarLengthArrayIcLi64EED2Ev
FN:87,_ZN15QVarLengthArrayIcLi48EED2Ev
FNDA:1,_ZN15QVarLengthArrayIcLi48EED2Ev
FN:138,_ZN15QVarLengthArrayIcLi64EEixEi
FNDA:2,_ZN15QVarLengthArrayIcLi64EEixEi
FN:138,_ZN15QVarLengthArrayIcLi48EEixEi
FNDA:2,_ZN15QVarLengthArrayIcLi48EEixEi
FN:190,_ZN15QVarLengthArrayIcLi64EE4dataEv
FNDA:2,_ZN15QVarLengthArrayIcLi64EE4dataEv
FN:190,_ZN15QVarLengthArrayIcLi48EE4dataEv
FNDA:1,_ZN15QVarLengthArrayIcLi48EE4dataEv
FN:192,_ZNK15QVarLengthArrayIcLi48EE9constDataEv
FNDA:1,_ZNK15QVarLengthArrayIcLi48EE9constDataEv
FN:265,_ZN15QVarLengthArrayIcLi64EEC2Ei
FNDA:1,_ZN15QVarLengthArrayIcLi64EEC2Ei
FN:265,_ZN15QVarLengthArrayIcLi48EEC2Ei
FNDA:1,_ZN15QVarLengthArrayIcLi48EEC2Ei
FNF:9
FNH:9
DA:87,1
DA:93,1
DA:94,0
DA:95,1
DA:87,1
DA:93,1
DA:94,0
DA:95,1
DA:138,2
DA:139,2
DA:140,2
DA:138,2
DA:139,2
DA:140,2
DA:190,2
DA:190,1
DA:192,1
DA:265,1
DA:266,1
DA:268,1
DA:269,1
DA:270,0
DA:271,0
DA:272,0
DA:274,1
DA:275,1
DA:282,1
DA:265,1
DA:266,1
DA:268,1
DA:269,1
DA:270,0
DA:271,0
DA:272,0
DA:274,1
DA:275,1
DA:282,1
LF:37
LH:29
end_of_record
SF:/usr/include/qt/QtQml/qqml.h
FN:722,_Z24qmlRegisterSingletonTypeI14ElisaArgumentsEiPKciiS2_PFP7QObjectP10QQmlEngineP9QJSEngineE
FNDA:1,_Z24qmlRegisterSingletonTypeI14ElisaArgumentsEiPKciiS2_PFP7QObjectP10QQmlEngineP9QJSEngineE
FNF:1
FNH:1
DA:722,1
DA:725,2
DA:727,1
DA:732,1
DA:735,1
LF:5
LH:5
end_of_record
SF:/usr/include/c++/10.2.0/bits/atomic_base.h
FN:100,_ZStanSt12memory_orderSt23__memory_order_modifier
FNDA:108,_ZStanSt12memory_orderSt23__memory_order_modifier
FN:325,_ZNSt13__atomic_baseIiEppEv
FNDA:0,_ZNSt13__atomic_baseIiEppEv
FN:333,_ZNSt13__atomic_baseIiEmmEv
FNDA:22,_ZNSt13__atomic_baseIiEmmEv
FNF:3
FNH:2
DA:100,108
DA:102,108
DA:325,0
DA:326,0
DA:333,22
DA:334,22
DA:399,4
DA:404,4
DA:405,4
DA:422,104
DA:426,104
LF:11
LH:9
end_of_record
SF:/usr/include/qt/QtCore/qflags.h
FN:66,_ZN5QFlagC2Ej
FNDA:1,_ZN5QFlagC2Ej
FN:69,_ZNK5QFlagcvjEv
FNDA:1,_ZNK5QFlagcvjEv
FN:125,_ZN6QFlagsIN10QArrayData16AllocationOptionEEC2E5QFlag
FNDA:1,_ZN6QFlagsIN10QArrayData16AllocationOptionEEC2E5QFlag
FN:134,_ZN6QFlagsIN9QMetaType8TypeFlagEEoRES1_
FNDA:4,_ZN6QFlagsIN9QMetaType8TypeFlagEEoRES1_
FN:134,_ZN6QFlagsIN10QArrayData16AllocationOptionEEoRES1_
FNDA:0,_ZN6QFlagsIN10QArrayData16AllocationOptionEEoRES1_
FN:141,_ZNK6QFlagsIN10QArrayData16AllocationOptionEEorES1_
FNDA:1,_ZNK6QFlagsIN10QArrayData16AllocationOptionEEorES1_
FNF:6
FNH:5
DA:66,1
DA:69,1
DA:125,1
DA:134,4
DA:134,0
DA:141,1
LF:6
LH:5
end_of_record
SF:/usr/include/qt/QtCore/qmetatype.h
FN:816,_ZN17QtMetaTypePrivate23QMetaTypeFunctionHelperIP14ElisaArgumentsLb1EE8DestructEPv
FNDA:0,_ZN17QtMetaTypePrivate23QMetaTypeFunctionHelperIP14ElisaArgumentsLb1EE8DestructEPv
FN:822,_ZN17QtMetaTypePrivate23QMetaTypeFunctionHelperIP14ElisaArgumentsLb1EE9ConstructEPvPKv
FNDA:0,_ZN17QtMetaTypePrivate23QMetaTypeFunctionHelperIP14ElisaArgumentsLb1EE9ConstructEPvPKv
FN:1590,_ZN9QtPrivate17MetaObjectForTypeIP14ElisaArgumentsvE5valueEv
FNDA:1,_ZN9QtPrivate17MetaObjectForTypeIP14ElisaArgumentsvE5valueEv
FN:1657,_ZN9QtPrivate34SequentialContainerConverterHelperIP14ElisaArgumentsLb0EE17registerConverterEi
FNDA:1,_ZN9QtPrivate34SequentialContainerConverterHelperIP14ElisaArgumentsLb0EE17registerConverterEi
FN:1680,_ZN9QtPrivate35AssociativeContainerConverterHelperIP14ElisaArgumentsLb0EE17registerConverterEi
FNDA:1,_ZN9QtPrivate35AssociativeContainerConverterHelperIP14ElisaArgumentsLb0EE17registerConverterEi
FN:1733,_ZN9QtPrivate6IsPairIP14ElisaArgumentsE17registerConverterEi
FNDA:1,_ZN9QtPrivate6IsPairIP14ElisaArgumentsE17registerConverterEi
FN:1749,_ZN9QtPrivate26MetaTypeSmartPointerHelperIP14ElisaArgumentsvE17registerConverterEi
FNDA:1,_ZN9QtPrivate26MetaTypeSmartPointerHelperIP14ElisaArgumentsvE17registerConverterEi
FN:1776,_ZN12QMetaTypeId2IP14ElisaArgumentsE14qt_metatype_idEv
FNDA:1,_ZN12QMetaTypeId2IP14ElisaArgumentsE14qt_metatype_idEv
FN:1788,_ZN9QtPrivate17QMetaTypeIdHelperIP14ElisaArgumentsLb1EE14qt_metatype_idEv
FNDA:1,_ZN9QtPrivate17QMetaTypeIdHelperIP14ElisaArgumentsLb1EE14qt_metatype_idEv
FN:1847,_Z27qRegisterNormalizedMetaTypeIP14ElisaArgumentsEiRK10QByteArrayPT_N9QtPrivate21MetaTypeDefinedHelperIS5_Xaasr12QMetaTypeId2IS5_E7DefinedntsrSA_9IsBuiltInEE11DefinedTypeE
FNDA:2,_Z27qRegisterNormalizedMetaTypeIP14ElisaArgumentsEiRK10QByteArrayPT_N9QtPrivate21MetaTypeDefinedHelperIS5_Xaasr12QMetaTypeId2IS5_E7DefinedntsrSA_9IsBuiltInEE11DefinedTypeE
FN:1946,_ZN18QMetaTypeIdQObjectIP14ElisaArgumentsLi8EE14qt_metatype_idEv
FNDA:1,_ZN18QMetaTypeIdQObjectIP14ElisaArgumentsLi8EE14qt_metatype_idEv
FNF:11
FNH:9
DA:816,0
DA:820,0
DA:822,0
DA:824,0
DA:825,0
DA:826,0
DA:1590,1
DA:1657,1
DA:1659,1
DA:1680,1
DA:1682,1
DA:1733,1
DA:1735,1
DA:1749,1
DA:1776,1
DA:1788,1
DA:1789,1
DA:1847,2
DA:1855,2
DA:1857,2
DA:1858,2
DA:1859,1
DA:1861,1
DA:1863,1
DA:1864,1
DA:1866,1
DA:1873,1
DA:1874,1
DA:1875,1
DA:1876,1
DA:1877,1
DA:1880,1
DA:1946,1
DA:1949,1
DA:1950,0
DA:1951,1
DA:1952,1
DA:1953,1
DA:1954,1
DA:1955,1
DA:1958,1
DA:1959,1
LF:42
LH:35
end_of_record
SF:/home/vumpus/kde/src/multimedia/elisa/src/main.cpp
FN:59,main
FNDA:1,main
FN:103,_ZZ4mainENKUlvE_clEv
FNDA:1,_ZZ4mainENKUlvE_clEv
FN:105,_ZZ4mainENKUlvE0_clEv
FNDA:1,_ZZ4mainENKUlvE0_clEv
FN:107,_ZZ4mainENKUlvE1_clEv
FNDA:1,_ZZ4mainENKUlvE1_clEv
FN:112,_ZZ4mainENKUlvE2_clEv
FNDA:1,_ZZ4mainENKUlvE2_clEv
FN:112,_ZZ4mainENKUlvE3_clEv
FNDA:1,_ZZ4mainENKUlvE3_clEv
FN:113,_ZZ4mainENKUlvE4_clEv
FNDA:1,_ZZ4mainENKUlvE4_clEv
FN:113,_ZZ4mainENKUlvE5_clEv
FNDA:1,_ZZ4mainENKUlvE5_clEv
FN:115,_ZZ4mainENKUlvE6_clEv
FNDA:1,_ZZ4mainENKUlvE6_clEv
FN:115,_ZZ4mainENKUlvE7_clEv
FNDA:1,_ZZ4mainENKUlvE7_clEv
FN:116,_ZZ4mainENKUlvE8_clEv
FNDA:1,_ZZ4mainENKUlvE8_clEv
FN:116,_ZZ4mainENKUlvE9_clEv
FNDA:1,_ZZ4mainENKUlvE9_clEv
FN:117,_ZZ4mainENKUlvE10_clEv
FNDA:1,_ZZ4mainENKUlvE10_clEv
FN:117,_ZZ4mainENKUlvE11_clEv
FNDA:1,_ZZ4mainENKUlvE11_clEv
FN:118,_ZZ4mainENKUlvE12_clEv
FNDA:1,_ZZ4mainENKUlvE12_clEv
FN:118,_ZZ4mainENKUlvE13_clEv
FNDA:1,_ZZ4mainENKUlvE13_clEv
FN:119,_ZZ4mainENKUlvE14_clEv
FNDA:1,_ZZ4mainENKUlvE14_clEv
FN:119,_ZZ4mainENKUlvE15_clEv
FNDA:1,_ZZ4mainENKUlvE15_clEv
FN:131,_ZZ4mainENKUlvE16_clEv
FNDA:1,_ZZ4mainENKUlvE16_clEv
FN:132,_ZZ4mainENKUlvE17_clEv
FNDA:1,_ZZ4mainENKUlvE17_clEv
FN:136,_ZZ4mainENKUlvE18_clEv
FNDA:1,_ZZ4mainENKUlvE18_clEv
FN:156,_ZZ4mainENKUlP10QQmlEngineP9QJSEngineE19_clES0_S2_
FNDA:1,_ZZ4mainENKUlP10QQmlEngineP9QJSEngineE19_clES0_S2_
FN:169,_ZZ4mainENKUlvE20_clEv
FNDA:1,_ZZ4mainENKUlvE20_clEv
FNF:23
FNH:23
DA:59,1
DA:77,1
DA:78,1
DA:80,1
DA:82,2
DA:85,1
DA:88,1
DA:100,1
DA:103,2
DA:105,3
DA:106,2
DA:107,3
DA:108,2
DA:110,4
DA:112,1
DA:112,1
DA:112,1
DA:113,1
DA:113,1
DA:113,1
DA:115,1
DA:115,1
DA:115,1
DA:116,1
DA:116,1
DA:116,1
DA:117,1
DA:117,1
DA:117,1
DA:118,1
DA:118,1
DA:118,1
DA:119,1
DA:119,1
DA:119,1
DA:121,1
DA:123,2
DA:124,1
DA:125,1
DA:126,1
DA:131,2
DA:132,2
DA:135,2
DA:136,2
DA:137,2
DA:140,2
DA:141,1
DA:142,1
DA:143,1
DA:146,1
DA:148,2
DA:149,2
DA:151,1
DA:152,0
DA:153,0
DA:156,1
DA:160,1
DA:162,1
DA:165,1
DA:167,1
DA:169,2
DA:171,1
LF:62
LH:60
end_of_record
